(dp1
S'Lizhu Zhou'
p2
F0.038297872340425532
sS'Teddy Candale'
p3
F0.085714285714285715
sS'Nam-Hee Hong'
p4
F0.25
sS'Takashi Okada'
p5
F0.029126213592233011
sS'Inge Thyssens'
p6
F0.28169014084507044
sS'Wook-Shin Han'
p7
F0.076923076923076927
sS'Ronen I. Brafman'
p8
F0.0045558086560364463
sS'Vladislav Shkapenyuk'
p9
F0.011695906432748537
sS'Xiaolei Li'
p10
F0.016977928692699491
sS'Shai Shalev-Shwartz'
p11
F0.096256684491978606
sS'Mayssam Sayyadian'
p12
F0.07792207792207792
sS'S. Raghuram'
p13
F0.23809523809523808
sS'Minoru Kanehisa'
p14
F0.14285714285714285
sS'Yonghua Wu'
p15
F0.20000000000000001
sS'Ruggiero Cavallo'
p16
F0.068181818181818177
sS'Ranjit Nair'
p17
F0.036363636363636362
sS'Hiroshi Sakamoto'
p18
F0.17647058823529413
sS'R. J. Nassif'
p19
F0.20000000000000001
sS'Yerucham Shapira'
p20
F0.33333333333333331
sS'Fazli Can'
p21
F0.01048951048951049
sS'Po-Jun Tsai'
p22
F0.26315789473684209
sS'Xiaotong Yuan'
p23
F0.23255813953488372
sS'Mouna Kacimi'
p24
F0.1111111111111111
sS'Vasilis Vassalos'
p25
F0.028103044496487119
sS'Liang Chen'
p26
F0.14999999999999999
sS'Felix Weigel'
p27
F0.11764705882352941
sS'Jens Clau\xc3\x9fen'
p28
F0.12987012987012986
sS'Gio Wiederhold'
p29
F0.0074074074074074077
sS'Brian F. Cooper'
p30
F0.086956521739130432
sS'Matthias Schubert'
p31
F0.086190009794319289
sS'Yuanyuan Tian'
p32
F0.10000000000000001
sS'Yan Huang'
p33
F0.045662100456621002
sS'Rama Chellappa'
p34
F0.055749128919860627
sS'Valdis Berzins'
p35
F0.082191780821917804
sS'Aiyou Chen'
p36
F0.125
sS'Georges Gardarin'
p37
F0.038314176245210725
sS'Mohan Kamath'
p38
F0.040816326530612242
sS'Pradeep Varakantham'
p39
F0.03125
sS'Michael Halper'
p40
F0.18018018018018017
sS'Jeremy R. Cooperstock'
p41
F0.23255813953488372
sS'Le Chen'
p42
F0.13157894736842105
sS'Weining Zhang'
p43
F0.055555555555555552
sS'Chotirat Ann Ratanamahatana'
p44
F0.074999999999999997
sS'Sailaja Parthasarathy'
p45
F0.15789473684210525
sS'Yuri Boykov'
p46
F0.20000000000000001
sS'Wen-Yuan Ku'
p47
F0.21276595744680851
sS'Ho-Hyun Park'
p48
F0.25
sS'Bishwaranjan Bhattacharjee'
p49
F0.025210084033613446
sS'Xuanhui Wang'
p50
F0.028490028490028491
sS'Souripriya Das'
p51
F0.013333333333333334
sS'Hannu Toivonen'
p52
F0.010186757215619695
sS'Maria L. Gini'
p53
F0.034285714285714287
sS'Weibo Gong'
p54
F0.17142857142857143
sS'Alessandro Moschitti'
p55
F0.0090361445783132526
sS'Jeffrey D. Ullman'
p56
F0.036556603773584904
sS'Fabien De Marchi'
p57
F0.056603773584905662
sS'Riqiang Shan'
p58
F0.25641025641025639
sS'Zhaohui Wu'
p59
F0.027272727272727271
sS'Kazuyuki Shimazu'
p60
F0.12244897959183673
sS'Wei Hong'
p61
F0.011214953271028037
sS'Shih-Fu Chang'
p62
F0.040540540540540543
sS'Samuel Madden'
p63
F0.0030349013657056147
sS'Helga Van Herle'
p64
F0.13636363636363635
sS'Heung-Yeung Shum'
p65
F0.064777327935222673
sS'Himanshu Arora'
p66
F0.34666666666666668
sS'Szymon Jaroszewicz'
p67
F0.012875536480686695
sS'Jeffrey C. Schlimmer'
p68
F0.032967032967032968
sS'Floriana Esposito'
p69
F0.034246575342465752
sS'Eran Gabber'
p70
F0.09375
sS'K. Sjoerd Mullender'
p71
F0.18181818181818182
sS'Thomas D. C. Little'
p72
F0.32258064516129031
sS'Hao Xu'
p73
F0.059405940594059403
sS'Dili Zhang'
p74
F0.13513513513513514
sS'Alexander Moshchuk'
p75
F0.065217391304347824
sS'Shu-Yuen Didi Yao'
p76
F0.13333333333333333
sS'Michael Hammer'
p77
F0.018691588785046728
sS'Kien A. Hua'
p78
F0.032444959443800693
sS'Odysseas G. Tsatalos'
p79
F0.14999999999999999
sS'Raju Balakrishnan'
p80
F0.24390243902439024
sS'S. Muthukrishnan'
p81
F0.0046814044213263975
sS'Leonidas Fegaras'
p82
F0.11392405063291139
sS'Smriti Yamini'
p83
F0.20833333333333334
sS'Olivier Biton'
p84
F0.071428571428571425
sS'K. W. Lodge'
p85
F0.12
sS'Wei Wu'
p86
F0.22222222222222221
sS'Scott C. Deerwester'
p87
F0.086956521739130432
sS'Chien-Yuan Huang'
p88
F0.16260162601626016
sS'Chad M. Schafer'
p89
F0.13333333333333333
sS'Eyal Amir'
p90
F0.0061791967044284241
sS'Dimitris Papadias'
p91
F0.0068367078622140415
sS'Patrick J. Flynn'
p92
F0.37037037037037035
sS'Horst Bischof'
p93
F0.069930069930069935
sS'Mark Ryland'
p94
F0.24390243902439024
sS'Yannis Papakonstantinou'
p95
F0.013777900248002205
sS'Yu Meng'
p96
F0.13333333333333333
sS'Torsten Suel'
p97
F0.033333333333333333
sS'Corey Bufi'
p98
F0.12244897959183673
sS'Ambuj Shatdal'
p99
F0.034482758620689655
sS'Casey Dugan'
p100
F0.10909090909090909
sS'Gaston H. Gonnet'
p101
F0.045112781954887216
sS'Cheng-Yue Chang'
p102
F0.050000000000000003
sS'Elisabetta Gerbino'
p103
F0.1276595744680851
sS'Jian Zhai'
p104
F0.25
sS'Shaul Dar'
p105
F0.027472527472527472
sS'Philip M. Johnson'
p106
F0.14999999999999999
sS'Guofei Jiang'
p107
F0.078947368421052627
sS'Jarek Gryz'
p108
F0.02247191011235955
sS'Richard C. H. Connor'
p109
F0.1111111111111111
sS'Aoying Zhou'
p110
F0.013107591480065538
sS'Tao Qin'
p111
F0.017391304347826087
sS'Yihong Zhao'
p112
F0.063291139240506333
sS'Ivan Radev'
p113
F0.19230769230769232
sS'Qiong Chen'
p114
F0.17647058823529413
sS'Ghassan Z. Qadah'
p115
F0.039473684210526314
sS'Gui-Rong Xue'
p116
F0.021459227467811159
sS'Xiaoyong Du'
p117
F0.080000000000000002
sS'SungRan Cho'
p118
F0.028708133971291867
sS'Cheong Hee Park'
p119
F0.038461538461538464
sS'Nicole Kr\xc3\xa4mer'
p120
F0.12
sS'P. C. Nagesh'
p121
F0.15384615384615385
sS'Nicole Lam'
p122
F0.20000000000000001
sS'Andrea Salgian'
p123
F0.33333333333333331
sS'Iluju Kiringa'
p124
F0.088235294117647065
sS'Finn \xc3\x85rup Nielsen'
p125
F0.088235294117647065
sS'Krishna Gade'
p126
F0.17142857142857143
sS'Robert C. Bolles'
p127
F0.054644808743169397
sS'John Mylopoulos'
p128
F0.0053050397877984082
sS'Wolfgang Klas'
p129
F0.050505050505050504
sS'Christoph Kilger'
p130
F0.19607843137254902
sS'Subramanian Arumugam'
p131
F0.099009900990099015
sS'Soma Biswas'
p132
F0.25
sS'Supratim Deb'
p133
F0.13333333333333333
sS'Paul Komarek'
p134
F0.09375
sS'Piero Fraternali'
p135
F0.026595744680851064
sS'T. Kyte'
p136
F0.25641025641025639
sS'Mainak Nath'
p137
F0.10256410256410256
sS'Michel Scholl'
p138
F0.018808777429467086
sS'Costin Barbu'
p139
F0.090909090909090912
sS'Laura Bright'
p140
F0.072289156626506021
sS'Max Welling'
p141
F0.059171597633136092
sS'Prakash Linga'
p142
F0.046875
sS'Elizabeth A. M. Shriver'
p143
F0.125
sS'Hennie J. Steenhagen'
p144
F0.12213740458015267
sS'Dalila Tamzalit'
p145
F0.32258064516129031
sS'Y-Lan Boureau'
p146
F0.23809523809523808
sS'Agma J. M. Traina'
p147
F0.0169971671388102
sS'Peter M. Stocker'
p148
F0.073170731707317069
sS'Xiaohua Hu'
p149
F0.0039267015706806281
sS'Tadashi Ohmori'
p150
F0.081081081081081086
sS'Roy Goldman'
p151
F0.086956521739130432
sS'Takashi Fuji'
p152
F0.15384615384615385
sS'Shashi K. Gadia'
p153
F0.025445292620865138
sS'Philip H. S. Torr'
p154
F0.050847457627118647
sS'Qi Yang'
p155
F0.078947368421052627
sS'Justin J. Levandoski'
p156
F0.084507042253521125
sS'Chi-Hoon Lee'
p157
F0.025862068965517241
sS'Amarjeet Singh 0003'
p158
F0.14999999999999999
sS'Klaus Berberich'
p159
F0.074534161490683232
sS'Paris C. Kanellakis'
p160
F0.020833333333333332
sS'Xin Fan'
p161
F0.13333333333333333
sS'Peter Bodorik'
p162
F0.19277108433734941
sS'\xc3\x96zg\xc3\xbcr Ulusoy'
p163
F0.066945606694560664
sS'Xiaoming Zhao'
p164
F0.26315789473684209
sS'Evaggelia Pitoura'
p165
F0.013698630136986301
sS'Vassilis Christophides'
p166
F0.041811846689895474
sS'Altigran Soares da Silva'
p167
F0.0096930533117932146
sS'Anthony Stentz'
p168
F0.12121212121212122
sS'Paul Munteanu'
p169
F0.063829787234042548
sS'Thomas A. M\xc3\xbcck'
p170
F0.38095238095238093
sS'Jianhua Ruan'
p171
F0.074999999999999997
sS'Han Shen'
p172
F0.13333333333333333
sS'Toneluh Andrew Yang'
p173
F0.14999999999999999
sS'Sandeep Gupta'
p174
F0.22413793103448276
sS'Chi-Ho Tsang'
p175
F0.16393442622950818
sS'Ambuj Goyal'
p176
F0.13043478260869565
sS'Johann Christoph Freytag'
p177
F0.011214953271028037
sS'Hiroshi Murase'
p178
F0.16528925619834711
sS'N. Nandhakumar'
p179
F0.12048192771084337
sS'Lise Getoor'
p180
F0.006269592476489028
sS'Randal J. Peters'
p181
F0.15151515151515152
sS'Himanshu Gupta'
p182
F0.12307692307692308
sS'SangKeun Lee'
p183
F0.070422535211267609
sS'Huowang Chen'
p184
F0.045801526717557252
sS'Shan Wang'
p185
F0.074534161490683232
sS'ShuiGuang Deng'
p186
F0.17142857142857143
sS'Astro Teller'
p187
F0.089552238805970144
sS'Risto Miikkulainen'
p188
F0.018209408194233688
sS'Magdi M. A. Morsi'
p189
F0.25974025974025972
sS'William Rucklidge'
p190
F0.17142857142857143
sS'Todd Eavis'
p191
F0.086330935251798566
sS'Michael R. Brent'
p192
F0.13636363636363635
sS'Fei Chen 0002'
p193
F0.065217391304347824
sS'Lida Li'
p194
F0.046153846153846156
sS'Christophe L\xc3\xa9cluse'
p195
F0.11560693641618497
sS'Gene T. J. Wuu'
p196
F0.079601990049751242
sS'Mongi A. Abidi'
p197
F0.090909090909090912
sS'Tie-Yan Liu'
p198
F0.0058548009367681503
sS'Willi Kl\xc3\xb6sgen'
p199
F0.03968253968253968
sS'Fadi A. Aloul'
p200
F0.20000000000000001
sS'Keith Golden'
p201
F0.17142857142857143
sS'K. Hima Prasad'
p202
F0.13636363636363635
sS'Panos K. Chrysanthis'
p203
F0.031746031746031744
sS'Jun Yang'
p204
F0.021251475796930343
sS'Dino Pedreschi'
p205
F0.022222222222222223
sS'Dan Pelleg'
p206
F0.041379310344827586
sS'Pawel Cichosz'
p207
F0.061224489795918366
sS'H. Stephen Au-Yeung'
p208
F0.24390243902439024
sS'Kevin Haas'
p209
F0.35714285714285715
sS'Yi Xia'
p210
F0.1276595744680851
sS'Ellis E. Chang'
p211
F0.058479532163742687
sS'J.-Q. Fang'
p212
F0.18181818181818182
sS'Yohannes Kassahun'
p213
F0.23255813953488372
sS'Stefano Crespi-Reghizzi'
p214
F0.12658227848101267
sS'Abdullah Uz Tansel'
p215
F0.023166023166023165
sS'J. Brian Burns'
p216
F0.14705882352941177
sS'Larry S. Davis'
p217
F0.024449877750611249
sS'Baile Shi'
p218
F0.034548944337811902
sS'Peter Lyngb\xc3\xa6k'
p219
F0.16774193548387098
sS'Ibrahim Kamel'
p220
F0.04065040650406504
sS'Peter V. Gehler'
p221
F0.17857142857142858
sS'Ronny Lempel'
p222
F0.027088036117381489
sS'Yuqing Wu'
p223
F0.018320610687022901
sS'Amit Somani'
p224
F0.098360655737704916
sS'Xiaoqiao Meng'
p225
F0.12244897959183673
sS'Rina Azoulay-Schwartz'
p226
F0.1875
sS'Rui Zhang'
p227
F0.22222222222222221
sS'Kristen LeFevre'
p228
F0.049586776859504134
sS'Yoram Kornatzky'
p229
F0.17857142857142858
sS'Ming Zhang'
p230
F0.082191780821917804
sS'Timothy Hancock'
p231
F0.21428571428571427
sS'Marcelo Arenas'
p232
F0.021937842778793418
sS'Wee Siong Ng'
p233
F0.046153846153846156
sS'Hongzhi Wang'
p234
F0.1276595744680851
sS'Mukund Raghavachari'
p235
F0.061224489795918366
sS'Fred J. Maryanski'
p236
F0.083333333333333329
sS'Camillo J. Taylor'
p237
F0.084745762711864403
sS'Man Hon Wong'
p238
F0.058666666666666666
sS'Yanlei Diao'
p239
F0.041095890410958902
sS'Vittorio Scarano'
p240
F0.21428571428571427
sS'Michael Deering'
p241
F0.16666666666666666
sS'Igor V. Cadez'
p242
F0.053191489361702128
sS'Yong Gao'
p243
F0.043795620437956206
sS'Fran\xc3\xa7ois Bancilhon'
p244
F0.07434944237918216
sS'Khaled Alsabti'
p245
F0.085106382978723402
sS'Chien-Yu Chen'
p246
F0.040540540540540543
sS'Enrique Mafla'
p247
F0.12
sS'David Finkel'
p248
F0.1875
sS'Roberto Brunelli'
p249
F0.34482758620689657
sS'Michael Buro'
p250
F0.11214953271028037
sS'R\xc3\xb3mer Rosales'
p251
F0.04048582995951417
sS'Artur Klauser'
p252
F0.18518518518518517
sS'S. S. Ravi'
p253
F0.020547945205479451
sS'Yan Tong'
p254
F0.14084507042253522
sS'Gerhard Weikum'
p255
F0.010456605088881143
sS'Fabio Fassetti'
p256
F0.09375
sS'Marc Gyssens'
p257
F0.03717472118959108
sS'Mohamed A. Sharaf'
p258
F0.065217391304347824
sS'Zhihui Wang'
p259
F0.15384615384615385
sS'Maxim Kormilitsin'
p260
F0.1276595744680851
sS'Ming Fang'
p261
F0.13636363636363635
sS'J\xc3\xb6rg-Uwe Kietz'
p262
F0.052631578947368418
sS'James T. Kwok'
p263
F0.011342155009451797
sS'Qinglong Hu'
p264
F0.057142857142857141
sS'Tad Hogg'
p265
F0.034013605442176874
sS'Peter Triantafillou'
p266
F0.024556616643929059
sS'Vijay Atluri'
p267
F0.20000000000000001
sS'Shivkumar Chandrasekaran'
p268
F0.25
sS'Jordan Erenrich'
p269
F0.065217391304347824
sS'Bart Selman'
p270
F0.0062565172054223151
sS'Pang-Ning Tan'
p271
F0.013615733736762481
sS'Marja-Riitta Koivunen'
p272
F0.17142857142857143
sS'Richard Mark Soley'
p273
F0.24390243902439024
sS'Dimitris Margaritis'
p274
F0.052009456264775412
sS'Adina Crainiceanu'
p275
F0.061224489795918366
sS'James P. Held'
p276
F0.20000000000000001
sS'Gilles Dequen'
p277
F0.14999999999999999
sS'Sachin More'
p278
F0.20689655172413793
sS'Yidong Yuan'
p279
F0.053811659192825115
sS'Eric N. Mortensen'
p280
F0.11363636363636363
sS'Thanh Tran 0002'
p281
F0.14999999999999999
sS'Wesley W. Chu'
p282
F0.033548387096774192
sS'Pin-Kwang Eng'
p283
F0.062827225130890049
sS'Lu\xc3\xads Torgo'
p284
F0.021052631578947368
sS'Christopher Condit'
p285
F0.23809523809523808
sS'Kjetil N\xc3\xb8rv\xc3\xa5g'
p286
F0.15165876777251186
sS'Richard Cocci'
p287
F0.14999999999999999
sS'Christos Kozyrakis'
p288
F0.20000000000000001
sS'Jing Su'
p289
F0.17647058823529413
sS'Henrik Reif Andersen'
p290
F0.03015075376884422
sS'Y. Shirai'
p291
F0.25641025641025639
sS'Yanjun Lou'
p292
F0.26315789473684209
sS'Jonathan Koren'
p293
F0.089552238805970144
sS'Ching-Pin Kao'
p294
F0.029999999999999999
sS'Kyuchul Lee'
p295
F0.23809523809523808
sS'Lei Li'
p296
F0.11320754716981132
sS'Charly Kleissner'
p297
F0.20408163265306123
sS'Adriano Veloso'
p298
F0.014251781472684086
sS'Emmanuel Waller'
p299
F0.15151515151515152
sS'Charu C. Aggarwal'
p300
F0.0022312090363965976
sS'Baoyao Zhou'
p301
F0.21276595744680851
sS'Atsushi Ohori'
p302
F0.26666666666666666
sS'Peter Bruza'
p303
F0.0072815533980582527
sS'John H. Christiansen'
p304
F0.23809523809523808
sS'Jingdan Zhang'
p305
F0.12658227848101267
sS'Frank Olken'
p306
F0.01812688821752266
sS'Virgiliu Pavlu'
p307
F0.016216216216216217
sS'Oliver Spatscheck'
p308
F0.011904761904761904
sS'Divesh Srivastava'
p309
F0.005327118361911104
sS'Jiyan Pan'
p310
F0.3125
sS'Steven M. Beitzel'
p311
F0.011952191235059761
sS'Nicholas E. Taylor'
p312
F0.13953488372093023
sS'Michael D. Soo'
p313
F0.09375
sS'Gianluigi Greco'
p314
F0.017035775127768313
sS'Robert Savell'
p315
F0.030927835051546393
sS'Min-Jae Lee'
p316
F0.033898305084745763
sS'Vladimir Estivill-Castro'
p317
F0.029126213592233011
sS'King-Lup Liu'
p318
F0.026239067055393587
sS'Tim Schmidt'
p319
F0.16666666666666666
sS'John Kennedy'
p320
F0.15384615384615385
sS'Wee Hyong Tok'
p321
F0.054545454545454543
sS'Daniel M. Roy'
p322
F0.16216216216216217
sS'Andrew Connolly'
p323
F0.10526315789473684
sS'James A. Hendler'
p324
F0.012195121951219513
sS'Shie Mannor'
p325
F0.0067491563554555678
sS'Jude W. Shavlik'
p326
F0.0042372881355932203
sS'Barbara Liskov'
p327
F0.34482758620689657
sS'Michael Mlivoncic'
p328
F0.054545454545454543
sS'Richard Campbell'
p329
F0.34482758620689657
sS'Jitender S. Deogun'
p330
F0.03717472118959108
sS'Zhaozheng Yin'
p331
F0.29850746268656714
sS'Won S. Lee'
p332
F0.14925373134328357
sS'Stefano Paraboschi'
p333
F0.035211267605633804
sS'Marie-Christine Fauvet'
p334
F0.13157894736842105
sS'Ting Chen'
p335
F0.053811659192825115
sS'Behzad Mortazavi-Asl'
p336
F0.058823529411764705
sS'Kouichi Hirata'
p337
F0.069767441860465115
sS'Dongqing Yang'
p338
F0.026086956521739129
sS'Dan Suciu'
p339
F0.00999000999000999
sS'Sandeepan Banerjee'
p340
F0.10638297872340426
sS'Michael J. Kearns'
p341
F0.0169971671388102
sS'Man-Lin Huang'
p342
F0.15384615384615385
sS'Gunter Saake'
p343
F0.042016806722689079
sS'Yong Shi'
p344
F0.024489795918367346
sS'Chung Keung Poon'
p345
F0.15789473684210525
sS'Jos\xc3\xa9 Martinez'
p346
F0.23255813953488372
sS'Peter Stone'
p347
F0.0046475600309837332
sS'John Langford'
p348
F0.012658227848101266
sS'Chih-Chin Liu'
p349
F0.22033898305084745
sS'Oliver Kaljuvee'
p350
F0.20689655172413793
sS'Thomas Ellman'
p351
F0.039215686274509803
sS'Chin-Wan Chung'
p352
F0.057347670250896057
sS'Nieves R. Brisaboa'
p353
F0.10169491525423729
sS'Pauray S. M. Tsai'
p354
F0.17647058823529413
sS'Martin Ester'
p355
F0.010270455323519343
sS'Jia-Lien Hsu'
p356
F0.10084033613445378
sS'Carl-Christian Kanne'
p357
F0.029702970297029702
sS'Krishna P. Mikkilineni'
p358
F0.028301886792452831
sS'Stephen D. Wragg'
p359
F0.12244897959183673
sS'Hoifung Poon'
p360
F0.036809815950920248
sS'Charles Parker'
p361
F0.10000000000000001
sS'Hao He'
p362
F0.021126760563380281
sS'Mary S. Lee'
p363
F0.068181818181818177
sS'Phillip C.-Y. Sheu'
p364
F0.14492753623188406
sS'Rong Zhang'
p365
F0.064102564102564097
sS'Sanjay Ghemawat'
p366
F1
sS'Anthony Hoogs'
p367
F0.18867924528301888
sS'Sangyong Hwang'
p368
F0.11764705882352941
sS'K. Madhava Krishna'
p369
F0.043010752688172046
sS'Dieter Fox'
p370
F0.020151133501259445
sS'Praveen Seshadri'
p371
F0.012738853503184714
sS'Nisheeth Shrivastava'
p372
F0.034482758620689655
sS'Akrivi Vlachou'
p373
F0.048387096774193547
sS'Claudia Diamantini'
p374
F0.16216216216216217
sS'Jung-Im Won'
p375
F0.04195804195804196
sS'Guy Ferran'
p376
F0.19230769230769232
sS'Chiou-Shann Fuh'
p377
F0.12820512820512819
sS'Vagelis Hristidis'
p378
F0.007677543186180422
sS'S. Sudarshan'
p379
F0.011385199240986717
sS'B. Vijayakumar'
p380
F0.26315789473684209
sS'Changgyu Oh'
p381
F0.17142857142857143
sS'Visvanathan Ramesh'
p382
F0.067567567567567571
sS'Lory D. Molesky'
p383
F0.20689655172413793
sS'Nicolas Bruno'
p384
F0.0058027079303675051
sS'Wen-Ying Xiong'
p385
F0.19230769230769232
sS'Gaoming Wang'
p386
F0.1360544217687075
sS'S. A. Hojjatoleslami'
p387
F0.125
sS'Rong Jin'
p388
F0.004662004662004662
sS'Nicholas S. Flann'
p389
F0.057142857142857141
sS'Giovanni A. Modica'
p390
F0.12195121951219512
sS'Jos\xc3\xa9 Kahan'
p391
F0.17142857142857143
sS'Peter C. Lockemann'
p392
F0.04405286343612335
sS'Guillaume Wisniewski'
p393
F0.096774193548387094
sS'Wai Gen Yee'
p394
F0.11594202898550725
sS'Yoav Freund'
p395
F0.042553191489361701
sS'Jae-Woo Chang'
p396
F0.083832335329341312
sS'Kwang-Ting Cheng'
p397
F0.095238095238095233
sS'Takeshi Tokuyama'
p398
F0.010186757215619695
sS'Charles A. Sutton'
p399
F0.037735849056603772
sS'Elke A. Rundensteiner'
p400
F0.010951256173502255
sS'Jia-Guang Sun'
p401
F0.095238095238095233
sS'Seizo Fujii'
p402
F0.16949152542372881
sS'Ahmad Taleb'
p403
F0.1875
sS'Daisy Bonjour'
p404
F0.27027027027027029
sS'Stefan Gower'
p405
F0.20408163265306123
sS'John Wicks'
p406
F0.15789473684210525
sS'Hidenao Abe'
p407
F0.097560975609756101
sS'Delfina Malandrino'
p408
F0.21428571428571427
sS'Scott Shenker'
p409
F0.054545454545454543
sS'Wojciech Cellary'
p410
F0.16806722689075632
sS'Holger Kache'
p411
F0.026315789473684209
sS'Zaiqing Nie'
p412
F0.050568900126422248
sS'David Maxwell Chickering'
p413
F0.058252427184466021
sS'Niels Nes'
p414
F0.090225563909774431
sS'Sanja Fidler'
p415
F0.23255813953488372
sS'Ellen M. Voorhees'
p416
F0.008670520231213872
sS'William Kaemmerer'
p417
F0.064516129032258063
sS'Michael G. Ross'
p418
F0.27777777777777779
sS'Andr\xc3\xa1s Kocsor'
p419
F0.050847457627118647
sS'Karthikeyan Ramasamy'
p420
F0.06535947712418301
sS'Brett Matson'
p421
F0.13043478260869565
sS'Anupam Bhide'
p422
F0.048387096774193547
sS'Michael A. Olson'
p423
F0.11904761904761904
sS'L\xc3\xa9on Bottou'
p424
F0.056074766355140186
sS'Pavel A. Exarkhopoulo'
p425
F0.29411764705882354
sS'John B. Hampshire II'
p426
F0.22727272727272727
sS'Elena Ferrari'
p427
F0.034364261168384883
sS'Xiang Zhang'
p428
F0.020202020202020204
sS'Anil Nori'
p429
F0.061728395061728392
sS'Mich\xc3\xa8le Cart'
p430
F0.061349693251533742
sS'Kyung-Chang Kim'
p431
F0.16853932584269662
sS'Fu Jie Huang'
p432
F0.23809523809523808
sS'Chenyi Xia'
p433
F0.13043478260869565
sS'Steven Salzberg'
p434
F0.013824884792626729
sS'John Hallam'
p435
F0.25
sS'James Wogulis'
p436
F0.10344827586206896
sS'Eric A. Hansen'
p437
F0.01556420233463035
sS'Cheng-Ru Lin'
p438
F0.061538461538461542
sS'Martin Pfeifle'
p439
F0.043388429752066117
sS'Yifan Li'
p440
F0.34482758620689657
sS'Charles D. Coleman'
p441
F0.16216216216216217
sS'Donald D. Chamberlin'
p442
F0.012526096033402923
sS'Eugene C. Freuder'
p443
F0.0061162079510703364
sS'Renzo Orsini'
p444
F0.14705882352941177
sS'Shen-Shyang Ho'
p445
F0.071111111111111111
sS'Lars S\xc3\xb6derlund'
p446
F0.065217391304347824
sS'Hanna Pasula'
p447
F0.090090090090090086
sS'Bill Paseman'
p448
F0.26315789473684209
sS'Periklis Georgiadis'
p449
F0.15384615384615385
sS'Ling Tony Chen'
p450
F0.13245033112582782
sS'Carsten Riggelsen'
p451
F0.037037037037037035
sS'Timothy Malkemus'
p452
F0.028301886792452831
sS'Li Tao'
p453
F0.25641025641025639
sS'Laurent Sikl\xc3\xb3ssy'
p454
F0.037037037037037035
sS'Xiaofang Zhou'
p455
F0.021881838074398249
sS'C\xc3\xa9dric du Mouza'
p456
F0.12244897959183673
sS'Kate A. Smith'
p457
F0.11764705882352941
sS'Cordelia Schmid'
p458
F0.12334801762114538
sS'Feng Shao'
p459
F0.10434782608695652
sS'Leslie J. Kitchen'
p460
F0.20000000000000001
sS'Maurizio Lenzerini'
p461
F0.004945598417408506
sS'Robert J. Hilderman'
p462
F0.045845272206303724
sS'S\xc3\xa1ndor H\xc3\xa9man'
p463
F0.12244897959183673
sS'David Maier'
p464
F0.037209302325581395
sS'Jing Lu'
p465
F0.096774193548387094
sS'Johannes F\xc3\xbcrnkranz'
p466
F0.016085790884718499
sS'Cameron Marlow'
p467
F0.16666666666666666
sS'Guilaine Talens'
p468
F0.29411764705882354
sS'Raja Chatila'
p469
F0.17857142857142858
sS'Yuni Xia'
p470
F0.091603053435114504
sS'Dmitri Asonov'
p471
F0.13636363636363635
sS'Todd C. Mowry'
p472
F0.022556390977443608
sS'Jason McHugh'
p473
F0.15625
sS'Joseph Faletti'
p474
F0.10714285714285714
sS'Chao Liu'
p475
F0.074999999999999997
sS'Roger S. Barga'
p476
F0.033057851239669422
sS'Nick Cercone'
p477
F0.0074673304293714996
sS'Andrew Dinn'
p478
F0.18018018018018017
sS'Zhiqian Wang'
p479
F0.17543859649122806
sS'Emiran Curtmola'
p480
F0.10169491525423729
sS'Mary Jane Willshire'
p481
F0.23255813953488372
sS'Todd Olsen'
p482
F0.11764705882352941
sS'Cristian-Augustin Saita'
p483
F0.14925373134328357
sS'Pierre-Claude Scholl'
p484
F0.20000000000000001
sS'Vineet Singh'
p485
F0.055045871559633031
sS'Christian Kohlsch\xc3\xbctter'
p486
F0.082191780821917804
sS'Su Chen'
p487
F0.25641025641025639
sS'T. Anthony Marsland'
p488
F0.042857142857142858
sS'V\xc3\xa1clav L\xc3\xadn'
p489
F0.16216216216216217
sS'Douglas R. Smith'
p490
F0.046153846153846156
sS'Ramakrishnan Srikant'
p491
F0.0088105726872246704
sS'Himanshu Sinha'
p492
F0.27777777777777779
sS'Shai Ben-David'
p493
F0.13513513513513514
sS'Henry Sowizral'
p494
F0.23255813953488372
sS'Angelo J. Pilotto'
p495
F0.15384615384615385
sS'Jian Xu'
p496
F0.030612244897959183
sS'William M. Wells III'
p497
F0.12195121951219512
sS'K. Sel\xc3\xa7uk Candan'
p498
F0.0069881201956673656
sS'B. R. Badrinath'
p499
F0.096491228070175433
sS'Marie-France Bruandet'
p500
F0.084745762711864403
sS'Bir Bhanu'
p501
F0.11904761904761904
sS'Sarvjeet Singh'
p502
F0.041379310344827586
sS'Xilin Yi'
p503
F0.16129032258064516
sS'Jorge F. Garza'
p504
F0.24793388429752067
sS'Andrea J. Borr'
p505
F0.058252427184466021
sS'Shuguang Hong'
p506
F0.25641025641025639
sS'John Joseph'
p507
F0.25641025641025639
sS'Seth J. White'
p508
F0.16455696202531644
sS'Lois M. L. Delcambre'
p509
F0.081081081081081086
sS'David Beech'
p510
F0.16759776536312848
sS'David McSherry'
p511
F0.035714285714285712
sS'Marco Del Percio'
p512
F0.21428571428571427
sS'Yoshiaki Shirai'
p513
F0.052770448548812667
sS'Salvatore J. Stolfo'
p514
F0.0036122817579771222
sS'Maddalena Garzetti'
p515
F0.20689655172413793
sS'Fan Yang 0002'
p516
F0.046153846153846156
sS'Ramon Lawrence'
p517
F0.050847457627118647
sS'Andreas Flache'
p518
F0.16666666666666666
sS'Min Song'
p519
F0.078947368421052627
sS'David Demirdjian'
p520
F0.23255813953488372
sS'Robert T. Chien'
p521
F0.067567567567567571
sS'Stuart N. K. Watt'
p522
F0.094488188976377951
sS'Anindya Datta'
p523
F0.013333333333333334
sS'Zhenfeng Zhu'
p524
F0.18181818181818182
sS'Justus H. Piater'
p525
F0.017035775127768313
sS'Alan S. Willsky'
p526
F0.085714285714285715
sS'Oscar D\xc3\xadaz'
p527
F0.10989010989010989
sS'Thomas Seidl'
p528
F0.039091389329107239
sS'Joseph Piven'
p529
F0.27777777777777779
sS'Yabo Xu'
p530
F0.029702970297029702
sS'Denilson Barbosa'
p531
F0.042253521126760563
sS'Alexandre X. Falc\xc3\xa3o'
p532
F0.056074766355140186
sS'Guanling Lee'
p533
F0.065934065934065936
sS'Alfonso Gerevini'
p534
F0.02181818181818182
sS'Paul D. Hubbe'
p535
F0.055045871559633031
sS'Irving Biederman'
p536
F0.37037037037037035
sS'Michael P. Wellman'
p537
F0.01107011070110701
sS'Varna Puvvada'
p538
F0.25641025641025639
sS'Tomoyuki Shibata'
p539
F0.085714285714285715
sS'Yannis E. Ioannidis'
p540
F0.0056565656565656566
sS'Andreas Reuter'
p541
F0.025104602510460251
sS'Haofeng Zhou'
p542
F0.13333333333333333
sS'Jing Peng'
p543
F0.066666666666666666
sS'Ke Wang'
p544
F0.0072668550666128385
sS'Toshihiro Kamishima'
p545
F0.035335689045936397
sS'Tao Xiong'
p546
F0.029702970297029702
sS'Kanishka Bhaduri'
p547
F0.06741573033707865
sS'Minoru Asada'
p548
F0.048543689320388349
sS'Mario Hern\xc3\xa1ndez-Tejera'
p549
F0.24390243902439024
sS'Carl Woolf'
p550
F0.21276595744680851
sS'Gerald J. Agin'
p551
F0.25
sS'Eric Eaton'
p552
F0.096153846153846159
sS'Jesse Davis'
p553
F0.020202020202020204
sS'Patricia Rodr\xc3\xadguez-Gianolli'
p554
F0.20689655172413793
sS'Hong Cheng'
p555
F0.0054397098821396192
sS'Hao Jiang'
p556
F0.12658227848101267
sS'Louiqa Raschid'
p557
F0.032828282828282832
sS'Mohammad Asgarian'
p558
F0.23255813953488372
sS'Atul Adya'
p559
F0.25477707006369427
sS'Siau-Cheng Khoo'
p560
F0.098360655737704916
sS'Ronghao Zhuang'
p561
F0.18518518518518517
sS'Liang Xiong'
p562
F0.12987012987012986
sS'Joachim M. Buhmann'
p563
F0.029585798816568046
sS'Erik B. Sudderth'
p564
F0.22222222222222221
sS'David W. Cheung'
p565
F0.020477815699658702
sS'Kit Hung Cheng'
p566
F0.16666666666666666
sS'Yuli Gao'
p567
F0.10752688172043011
sS'Yannis Kotidis'
p568
F0.014206787687450671
sS'Yen-Yu Chen'
p569
F0.13043478260869565
sS'Foster J. Provost'
p570
F0.019261637239165328
sS'Yiwen Yin'
p571
F0.045801526717557252
sS'Achim G. Hoffmann'
p572
F0.048000000000000001
sS'Carlo Zaniolo'
p573
F0.015605949768349184
sS'David L. Wells'
p574
F0.095238095238095233
sS'Matthias Mitschke'
p575
F0.10000000000000001
sS'Runping Qi'
p576
F0.10000000000000001
sS'Naomi Yoshizawa'
p577
F0.14705882352941177
sS'Jia Li'
p578
F0.023904382470119521
sS'Kamalakar Karlapalem'
p579
F0.057971014492753624
sS'Wenwu Lou'
p580
F0.070588235294117646
sS'Jan J. Mulawka'
p581
F0.15789473684210525
sS'Anna Lipka'
p582
F0.19230769230769232
sS'Reda Alhajj'
p583
F0.097087378640776698
sS'Alex Pentland'
p584
F0.018867924528301886
sS'W. Ritter'
p585
F0.22222222222222221
sS'Ren\xc3\xa9e J. Miller'
p586
F0.0087676570871894795
sS'John Shilling'
p587
F0.27027027027027029
sS'Mukesh Dalal'
p588
F0.069767441860465115
sS'Man Lung Yiu'
p589
F0.049469964664310952
sS'Gordon V. Cormack'
p590
F0.012244897959183673
sS'Hsuan-Yu Chen'
p591
F0.13333333333333333
sS'Wenhui Liao'
p592
F0.11347517730496454
sS'Benjamin Van Roy'
p593
F0.040816326530612242
sS'Lakshmish Ramaswamy'
p594
F0.06741573033707865
sS'James J. Little'
p595
F0.11494252873563218
sS'W. Bruce Croft'
p596
F0.0016687194564742342
sS'Roger Munck-Fairwood'
p597
F0.37037037037037035
sS'Moshe Tennenholtz'
p598
F0.013544018058690745
sS'Eugene Inseok Chong'
p599
F0.011904761904761904
sS'Ali R. Hurson'
p600
F0.076335877862595422
sS'Yunbo Cao'
p601
F0.018214936247723135
sS'Olivier Teytaud'
p602
F0.20833333333333334
sS'Brian C. Twichell'
p603
F0.14285714285714285
sS'Mustafa Bilgic'
p604
F0.086956521739130432
sS'Ki Yong Lee'
p605
F0.22222222222222221
sS'Dhiman Barman'
p606
F0.092307692307692313
sS'Mokhtar Kandil'
p607
F0.056603773584905662
sS'Peter J. L. van Beek'
p608
F0.22727272727272727
sS'Ouri Wolfson'
p609
F0.039735099337748346
sS'Chris Jermaine'
p610
F0.022792022792022793
sS'Wei Jiang'
p611
F0.030456852791878174
sS'Michael Lindenbaum'
p612
F0.12658227848101267
sS'John Binder'
p613
F0.082191780821917804
sS'Zhengyou Zhang'
p614
F0.037037037037037035
sS'Mahesh Saptharishi'
p615
F0.22727272727272727
sS'J. George Shanthikumar'
p616
F0.27777777777777779
sS'Robert Wilensky'
p617
F0.047244094488188976
sS'Wolfgang Lehner'
p618
F0.0056390977443609019
sS'Ming-Syan Chen'
p619
F0.012254460263110471
sS'Hyowon Lee'
p620
F0.27027027027027029
sS'David Shutt'
p621
F0.15625
sS'Boris Shidlovsky'
p622
F0.069930069930069935
sS'Kostas Patroumpas'
p623
F0.27777777777777779
sS'Mark Last'
p624
F0.18181818181818182
sS'Lawrence V. Saxton'
p625
F0.19047619047619047
sS'Tatiana Semenova'
p626
F0.14634146341463414
sS'Setrag Khoshafian'
p627
F0.14563106796116504
sS'Juliano Lopes de Oliveira'
p628
F0.18181818181818182
sS'Hendrik Blockeel'
p629
F0.0037974683544303796
sS'Vasileios Megalooikonomou'
p630
F0.028985507246376812
sS'Leemon C. Baird III'
p631
F0.054545454545454543
sS'Hao Shang'
p632
F0.42105263157894735
sS'Omar Boussaid'
p633
F0.07792207792207792
sS'Vitaly Shmatikov'
p634
F0.081081081081081086
sS'Shuai Ma'
p635
F0.042553191489361701
sS'Heng Tao Shen'
p636
F0.074941451990632318
sS'Trevor Cohn'
p637
F0.13333333333333333
sS'Keke Chen'
p638
F0.022388059701492536
sS'G\xc3\xa9rard G. Medioni'
p639
F0.071762870514820595
sS'Jian Pei'
p640
F0.010572687224669603
sS'Prasenjit Mitra'
p641
F0.014234875444839857
sS'Jan Flokstra'
p642
F0.029999999999999999
sS'Alejandro Guti\xc3\xa9rrez'
p643
F0.13333333333333333
sS'Minh-Tri Pham'
p644
F0.22222222222222221
sS'James Philbin'
p645
F0.25
sS'Sumit Ganguly'
p646
F0.0056390977443609019
sS'Robert Mathonet'
p647
F0.1111111111111111
sS'Dallan Quass'
p648
F0.067114093959731544
sS'Henry D. Knowles'
p649
F0.23809523809523808
sS'Leo Spalteholz'
p650
F0.089552238805970144
sS'Dhaval Shah'
p651
F0.23255813953488372
sS'Thad Starner'
p652
F0.047619047619047616
sS'Murthy Ganti'
p653
F0.20000000000000001
sS'Sreenath Bodagala'
p654
F0.13333333333333333
sS'Andrea Pugliese'
p655
F0.046511627906976744
sS'Andreas Weininger'
p656
F0.10526315789473684
sS'Manolis M. Tsangaris'
p657
F0.21052631578947367
sS'Zhuowen Tu'
p658
F0.16806722689075632
sS'Gianfranco R. Putzolu'
p659
F0.072289156626506021
sS'Chi-Feng Chang'
p660
F0.13333333333333333
sS'Jean-Daniel Zucker'
p661
F0.025974025974025976
sS'Stephen Gould'
p662
F0.26315789473684209
sS'Abhinav Gupta'
p663
F0.092592592592592587
sS'Waiyawuth Euachongprasit'
p664
F0.10000000000000001
sS'Wenmin Li'
p665
F0.13333333333333333
sS'Niki Pissinou'
p666
F0.10638297872340426
sS'Leo Mark'
p667
F0.12820512820512819
sS'Arnaud Giacometti'
p668
F0.13953488372093023
sS'Rajendran M. Sivasankaran'
p669
F0.17142857142857143
sS'Bernhard Seeger'
p670
F0.020079099482811075
sS'Raj P. Gopalan'
p671
F0.17647058823529413
sS'Cheng Luo'
p672
F0.047244094488188976
sS'C. David Page Jr.'
p673
F0.073170731707317069
sS'Sheng Wang'
p674
F0.17647058823529413
sS'Andrew W. Moore'
p675
F0.01948051948051948
sS'Abdelsalam Helal'
p676
F0.018018018018018018
sS'Joachim Sch\xc3\xbc'
p677
F0.0625
sS'Hiroshi G. Okuno'
p678
F0.1111111111111111
sS'Marden S. Neubert'
p679
F0.14999999999999999
sS'Massimo Zancanaro'
p680
F0.15789473684210525
sS'N. R. Achuthan'
p681
F0.17647058823529413
sS'Tian Zhang'
p682
F0.042553191489361701
sS'Toshiro Takase'
p683
F0.093023255813953487
sS'Sebastian Gerke'
p684
F0.26315789473684209
sS'Gisela Fischer'
p685
F0.18518518518518517
sS'Son Dao'
p686
F0.10222222222222223
sS'Mohamed A. Soliman'
p687
F0.037499999999999999
sS'Yunquan Zhang'
p688
F0.10714285714285714
sS'Geoffrey D. Sullivan'
p689
F0.42105263157894735
sS'Abdullah Al-Hamdani'
p690
F0.23809523809523808
sS'Jiajun Bu'
p691
F0.012145748987854251
sS'Keith D. Baker'
p692
F0.42105263157894735
sS'Jeanette P. Schmidt'
p693
F0.14634146341463414
sS'E. A. Roman'
p694
F0.29411764705882354
sS'Andrea Cal\xc3\xac'
p695
F0.055555555555555552
sS'Lenhart K. Schubert'
p696
F0.015503875968992248
sS'Michael Benedikt'
p697
F0.0080808080808080808
sS'Chi Lap Yip'
p698
F0.073469387755102047
sS'Peter M. D. Gray'
p699
F0.094117647058823528
sS'Alexander L. Strehl'
p700
F0.084507042253521125
sS'Sreenivas Gollapudi'
p701
F0.057803468208092484
sS'Rainer Zieschang'
p702
F0.19230769230769232
sS'John Hale'
p703
F0.15789473684210525
sS'Mark A. Woyna'
p704
F0.23809523809523808
sS'Rafiul Ahad'
p705
F0.085470085470085472
sS'Rudolf Bayer'
p706
F0.020270270270270271
sS'Marius Messner'
p707
F0.26315789473684209
sS'Stephen Todd'
p708
F0.14285714285714285
sS'Leif Azzopardi'
p709
F0.012170385395537525
sS'Tushar Chandra'
p710
F0.15789473684210525
sS'Graeme A. Jones'
p711
F0.29411764705882354
sS'Cristina Sernadas'
p712
F0.26315789473684209
sS'Masaru Kitsuregawa'
p713
F0.010838709677419355
sS'Giridhar Kumaran'
p714
F0.041666666666666664
sS'Mark Devaney'
p715
F0.10344827586206896
sS'Changqing Li'
p716
F0.085106382978723402
sS'Michelle LaMar'
p717
F0.32258064516129031
sS'Ashok M. Joshi'
p718
F0.14634146341463414
sS'Chuan Xiao'
p719
F0.16666666666666666
sS'Jack Ng'
p720
F0.1276595744680851
sS'Robert M. Haralick'
p721
F0.049019607843137254
sS'Lars Kulik'
p722
F0.22222222222222221
sS'Florian Waas'
p723
F0.027649769585253458
sS'Pankaj Jain'
p724
F0.24390243902439024
sS'Emanuele Trucco'
p725
F0.13043478260869565
sS'Philip Klahr'
p726
F0.058139534883720929
sS'Garrett Jacobson'
p727
F0.22222222222222221
sS'Elizabeth McKenna'
p728
F0.10169491525423729
sS'Weixiong Zhang'
p729
F0.010380622837370242
sS'Samah Jamal Fodeh'
p730
F0.13333333333333333
sS'Deborah R. Carvalho'
p731
F0.14084507042253522
sS'Otto Nurmi'
p732
F0.066666666666666666
sS'Jian-Tao Sun'
p733
F0.014992503748125937
sS'Omran A. Bukhres'
p734
F0.026315789473684209
sS'Hong Su'
p735
F0.013186813186813187
sS'Roberto Zicari'
p736
F0.13774104683195593
sS'David A. Plaisted'
p737
F0.089552238805970144
sS'Elisabeth M\xc3\xa9tais'
p738
F0.17241379310344829
sS'Andrew Tomkins'
p739
F0.013969732246798603
sS'Pavel Berkhin'
p740
F0.064516129032258063
sS'Tomonobu Ozaki'
p741
F0.10344827586206896
sS'Vasant Honavar'
p742
F0.0088495575221238937
sS'Hirofumi Matsuzawa'
p743
F0.044117647058823532
sS'Tova Milo'
p744
F0.0091449474165523556
sS'Jana Bauckmann'
p745
F0.17142857142857143
sS'Guimei Liu'
p746
F0.01812688821752266
sS'HongJiang Zhang'
p747
F0.03787878787878788
sS'K. S. Wong'
p748
F0.14999999999999999
sS'Stardas Pakalnis'
p749
F0.32258064516129031
sS'James P. Callan'
p750
F0.0044370493621741546
sS'Eric K. Y. Ho'
p751
F0.10526315789473684
sS'Etzard Stolte'
p752
F0.048387096774193547
sS'Reinhard Braumandl'
p753
F0.090909090909090912
sS'Derek Greene'
p754
F0.029126213592233011
sS'Herman J. Haverkort'
p755
F0.125
sS'Jianmin Wang'
p756
F0.095238095238095233
sS'Jo\xc3\xablle Madec'
p757
F0.30303030303030304
sS'Jie-Bing Yu'
p758
F0.17391304347826086
sS'Haibin Cheng'
p759
F0.033519553072625698
sS'Wei Wei'
p760
F0.082191780821917804
sS'James J. Lu'
p761
F0.09375
sS'Divyakant Agrawal'
p762
F0.013799310034498274
sS'Jos\xc3\xa9 A. Blakeley'
p763
F0.04779411764705882
sS'Hai Yu'
p764
F0.07407407407407407
sS'Paolo Avesani'
p765
F0.023346303501945526
sS'Yi Chen'
p766
F0.020202020202020204
sS'Rosalynn Chong'
p767
F0.19354838709677419
sS'Paul C. van Oorschot'
p768
F0.14999999999999999
sS'Zbigniew W. Ras'
p769
F0.073170731707317069
sS'Maria Halkidi'
p770
F0.043478260869565216
sS'Arie Segev'
p771
F0.020539152759948651
sS'Michael J. Jones'
p772
F0.089285714285714288
sS'Shinn-Ying Ho'
p773
F0.13698630136986301
sS'Werner Kie\xc3\x9fling'
p774
F0.053030303030303032
sS'Gurmeet Singh Manku'
p775
F0.056338028169014086
sS'Julien Lefevre'
p776
F0.20833333333333334
sS'Tom Crecelius'
p777
F0.080000000000000002
sS'Vanja Josifovski'
p778
F0.0089047195013357075
sS'Lyle H. Ungar'
p779
F0.013274336283185841
sS'Baihua Zheng'
p780
F0.0097244732576985422
sS'Xiang Ji'
p781
F0.033707865168539325
sS'Marco Cova'
p782
F0.16216216216216217
sS'Robert Gruber'
p783
F0.51948051948051943
sS'Utku Irmak'
p784
F0.093023255813953487
sS'Melanie Gnasa'
p785
F0.07407407407407407
sS'Bryant W. York'
p786
F0.29850746268656714
sS'Weiming Liu'
p787
F0.14999999999999999
sS'Xiaoou Tang'
p788
F0.037105751391465679
sS'Xiaolin Li'
p789
F0.096774193548387094
sS'Praveen Paruchuri'
p790
F0.083333333333333329
sS'Naphtali Rishe'
p791
F0.021390374331550801
sS'Angela Bonifati'
p792
F0.018867924528301886
sS'Bruce A. Draper'
p793
F0.10752688172043011
sS'Fox Development Team'
p794
F0.22727272727272727
sS'Shakil M. Khan'
p795
F0.23255813953488372
sS'Dave Birdsall'
p796
F0.19354838709677419
sS'Shenghuo Zhu'
p797
F0.010362694300518135
sS'Ching-Huei Wang'
p798
F0.084033613445378158
sS'Peter A. Boncz'
p799
F0.060475161987041039
sS'Beitao Li'
p800
F0.11764705882352941
sS'Angela Nicoara'
p801
F0.18181818181818182
sS'P. Sreenivasa Kumar'
p802
F0.080000000000000002
sS'Ashutosh Saxena'
p803
F0.086206896551724144
sS'Michael H. B\xc3\xb6hlen'
p804
F0.042424242424242427
sS'Jaswinder Pal Singh'
p805
F0.090090090090090086
sS'Xindong Wu'
p806
F0.011869436201780416
sS'Shweta Bajpai'
p807
F0.15789473684210525
sS'Hwee Tou Ng'
p808
F0.012684989429175475
sS'Stefan Lanser'
p809
F0.26315789473684209
sS'Xavier Schaefer'
p810
F0.17857142857142858
sS'Rebecca Braynard'
p811
F0.066666666666666666
sS'David R. Millen'
p812
F0.10909090909090909
sS'Robert M. Pecherer'
p813
F0.10526315789473684
sS'Andreas Paepcke'
p814
F0.15714285714285714
sS'Xiangyang Xue'
p815
F0.13513513513513514
sS'Clark F. Olson'
p816
F0.090090090090090086
sS'Robert Bergevin'
p817
F0.37037037037037035
sS'Cheng-Hua Pai'
p818
F0.25
sS'David Wai-Lok Cheung'
p819
F0.027422303473491772
sS'G. Maul'
p820
F0.19230769230769232
sS'Ramakrishna Gummadi'
p821
F0.12244897959183673
sS'Laura Gui'
p822
F0.20833333333333334
sS'Marcus L\xc3\xbcbbe'
p823
F0.16666666666666666
sS'M. Theodoridou'
p824
F0.24390243902439024
sS'Bruno M. Fonseca'
p825
F0.10526315789473684
sS'Frank Hing-Wah Luk'
p826
F0.23255813953488372
sS'Min C. Shin'
p827
F0.21978021978021978
sS'Wenyuan Guo'
p828
F0.22222222222222221
sS'Ullas Nambiar'
p829
F0.031545741324921134
sS'Nicholas R. Jennings'
p830
F0.0076238881829733167
sS'Elhadji Mamadou Nguer'
p831
F0.15384615384615385
sS'Hoyoung Jeung'
p832
F0.18867924528301888
sS'Vlad Gorelik'
p833
F0.19354838709677419
sS'Haesun Park'
p834
F0.012738853503184714
sS'Yangjun Chen'
p835
F0.043165467625899283
sS'Alexander C. Loui'
p836
F0.082191780821917804
sS'Kang Zhang'
p837
F0.031413612565445025
sS'Riadh Ben Messaoud'
p838
F0.07792207792207792
sS'Naju Mancheril'
p839
F0.29999999999999999
sS'Chuan-Sung Huang'
p840
F0.25641025641025639
sS'Jason Y. Zien'
p841
F0.046511627906976744
sS'Yaacov Ritov'
p842
F0.35714285714285715
sS'Gerald Fritz'
p843
F0.22222222222222221
sS'Jean-Robert Gruser'
p844
F0.16806722689075632
sS'Ramez Elmasri'
p845
F0.024551463644948063
sS'Siegfried Nijssen'
p846
F0.031088082901554404
sS'Jing Hua'
p847
F0.065217391304347824
sS'Donna Haverkamp'
p848
F0.25
sS'Bo Xu'
p849
F0.11173184357541899
sS'Robert Marek'
p850
F0.049180327868852458
sS'Tamer Kahveci'
p851
F0.044444444444444446
sS'Kotagiri Ramamohanarao'
p852
F0.012311480455524777
sS'Srinivas Ashwin'
p853
F0.21276595744680851
sS'Florent Serre'
p854
F0.13043478260869565
sS'Bernd-Uwe Pagel'
p855
F0.068027210884353748
sS'Bernhard Pfahringer'
p856
F0.018604651162790697
sS'Scott T. Leutenegger'
p857
F0.086956521739130432
sS'Daniel J. Rosenkrantz'
p858
F0.024937655860349128
sS'Gabriel Pui Cheong Fung'
p859
F0.022388059701492536
sS'Frank Leymann'
p860
F0.037499999999999999
sS'Jeffrey Bennett'
p861
F0.13636363636363635
sS'Chih-Ping Wei'
p862
F0.22727272727272727
sS'Yaron Kanza'
p863
F0.04807692307692308
sS'Rimma V. Nehme'
p864
F0.069444444444444448
sS'Joxan Jaffar'
p865
F0.060606060606060608
sS'Sudarshan S. Chawathe'
p866
F0.049382716049382713
sS'Scott Satkin'
p867
F0.13333333333333333
sS'Kevin Y. Yip'
p868
F0.074999999999999997
sS'Mitsutoshi Iino'
p869
F0.27027027027027029
sS'Lada A. Adamic'
p870
F0.086956521739130432
sS'Takuya Matsuzaki'
p871
F0.21428571428571427
sS'Michalis Vazirgiannis'
p872
F0.021032504780114723
sS'Naoyuki Ichimura'
p873
F0.11538461538461539
sS'Nicholas E. Matsakis'
p874
F0.16216216216216217
sS'Egemen Tanin'
p875
F0.14492753623188406
sS'Hongxue Wang'
p876
F0.26315789473684209
sS'Giovanna Guerrini'
p877
F0.090909090909090912
sS'Huan Liu'
p878
F0.0077536075813051906
sS'Hui J. Chang'
p879
F0.15789473684210525
sS'Sebastian Michel'
p880
F0.03287671232876712
sS'Yi-Dong Shen'
p881
F0.035087719298245612
sS'Sam Chamberlain'
p882
F0.176056338028169
sS'Tongbo Chen'
p883
F0.27777777777777779
sS'Qing Li'
p884
F0.05016722408026756
sS'Nathan Goodman'
p885
F0.007656967840735069
sS'Hendrik P. A. Lensch'
p886
F0.27777777777777779
sS'Donald Cohen'
p887
F0.032967032967032968
sS'Norman M. Sadeh'
p888
F0.054545454545454543
sS'Andreas Krause'
p889
F0.027842227378190254
sS'Lei Chen 0002'
p890
F0.026565464895635674
sS'Hans-Joachim Novak'
p891
F0.11904761904761904
sS'Amihood Amir'
p892
F0.037735849056603772
sS'Osman Abul'
p893
F0.26315789473684209
sS'Alexandr Andoni'
p894
F0.10909090909090909
sS'Muralidhar Krishnaprasad'
p895
F0.067796610169491525
sS'Deng Cai'
p896
F0.0070671378091872791
sS'Jin Hu'
p897
F0.18181818181818182
sS'D. Kroenke'
p898
F0.25641025641025639
sS'James C. Browne'
p899
F0.062111801242236024
sS'Torben Bach Pedersen'
p900
F0.050632911392405063
sS'Shinji Kawasoe'
p901
F0.043165467625899283
sS'Prashant Bhat'
p902
F0.14999999999999999
sS'Ann Christine Catlin'
p903
F0.065934065934065936
sS'Dale Skeen'
p904
F0.033333333333333333
sS'Shyamshankar Dharmarajan'
p905
F0.16216216216216217
sS'Venkatesh Ganti'
p906
F0.050822122571001493
sS'Weidong Chen'
p907
F0.097087378640776698
sS'Faustino J. Gomez'
p908
F0.04195804195804196
sS'Moira C. Norrie'
p909
F0.096153846153846159
sS'Oldemar Rodr\xc3\xadguez-Rojas'
p910
F0.27777777777777779
sS'Yiming Lu'
p911
F0.13043478260869565
sS'Lei Zhang'
p912
F0.014005602240896359
sS'Dominique Laurent'
p913
F0.02843601895734597
sS'Balakrishna R. Iyer'
p914
F0.031914893617021274
sS'Edward L. Morofsky'
p915
F0.16949152542372881
sS'Paulo J. F. Carreira'
p916
F0.16216216216216217
sS'Tim King'
p917
F0.21739130434782608
sS'Benny Kimelfeld'
p918
F0.024793388429752067
sS'Samuel T. Chanson'
p919
F0.11764705882352941
sS'Mohamed Za\xc3\xaft'
p920
F0.060606060606060608
sS'Pushpraj Shukla'
p921
F0.14999999999999999
sS'Nabil R. Adam'
p922
F0.15384615384615385
sS'Luigi Pontieri'
p923
F0.090090090090090086
sS'Markian M. Gooley'
p924
F0.20689655172413793
sS'Min Hu'
p925
F0.15789473684210525
sS'Jixue Liu'
p926
F0.23255813953488372
sS'Philippe Mulhem'
p927
F0.05181347150259067
sS'Shu-Yao Chien'
p928
F0.21212121212121213
sS'Yann Lepetit'
p929
F0.19230769230769232
sS'George Forman'
p930
F0.013245033112582781
sS'Ray Rida Hamza'
p931
F0.25
sS'Natasa Lazetic'
p932
F0.18518518518518517
sS'Holger H. Hoos'
p933
F0.030769230769230771
sS'D. J. Moore'
p934
F0.20000000000000001
sS'Georg Gottlob'
p935
F0.010212765957446808
sS'Chong-Sun Hwang'
p936
F0.054945054945054944
sS'Arnaud Sahuguet'
p937
F0.02643171806167401
sS'Gary Silverman'
p938
F0.29411764705882354
sS'Tore Risch'
p939
F0.0703125
sS'Lucian Galescu'
p940
F0.20833333333333334
sS'Mingjie Zhu'
p941
F0.11764705882352941
sS'James F. Allen'
p942
F0.039215686274509803
sS'Frank DiMaio'
p943
F0.19607843137254902
sS'Yin-he Jiang'
p944
F0.23809523809523808
sS'Luc Bouganim'
p945
F0.026917900403768506
sS'Marc Andries'
p946
F0.17857142857142858
sS'Piergiorgio Bertoli'
p947
F0.024875621890547265
sS'Craig A. Knoblock'
p948
F0.0050709939148073022
sS'Jae-Gil Lee'
p949
F0.024793388429752067
sS'Hongmei Sun'
p950
F0.11764705882352941
sS'Yun Chi'
p951
F0.01366742596810934
sS'Kin Fun Li'
p952
F0.089552238805970144
sS'Weidong Yu'
p953
F0.25641025641025639
sS'Le Gruenwald'
p954
F0.016
sS'Sharad Mehrotra'
p955
F0.022002200220022004
sS'Hao Huang'
p956
F0.089552238805970144
sS'H. Brendan McMahan'
p957
F0.047244094488188976
sS'Brent Bryan'
p958
F0.072289156626506021
sS'Sanjay Ranka'
p959
F0.057971014492753624
sS'Eva Lorenzo Iglesias'
p960
F0.17647058823529413
sS'Peter Reutemann'
p961
F0.11538461538461539
sS'Shenghua Bao'
p962
F0.023201856148491878
sS'Jeffrey Xu Yu'
p963
F0.01601898546425393
sS'Olivier Dubois'
p964
F0.14999999999999999
sS'Ching-Jiu Hsiao'
p965
F0.19354838709677419
sS'Quoc Vu'
p966
F0.040540540540540543
sS'Mengchi Liu'
p967
F0.17241379310344829
sS'Linhao Xu'
p968
F0.18181818181818182
sS'Peter M. Schwarz'
p969
F0.042918454935622317
sS'Christopher R. Palmer'
p970
F0.035294117647058823
sS'Yves Chiaramella'
p971
F0.027397260273972601
sS'Moustafa A. Hammad'
p972
F0.033898305084745763
sS'Martial Hebert'
p973
F0.10191082802547771
sS'Henk M. Blanken'
p974
F0.053278688524590161
sS'T. Niranjan'
p975
F0.23809523809523808
sS'Jian Tang'
p976
F0.026086956521739129
sS'Keishi Tajima'
p977
F0.18978102189781021
sS'Daniel J. Abadi'
p978
F0.013544018058690745
sS'Christian Plagemann'
p979
F0.078947368421052627
sS'Antonio Si'
p980
F0.053511705685618728
sS'Ulrich G\xc3\xbcntzer'
p981
F0.081031307550644568
sS'David E. Moriarty'
p982
F0.11320754716981132
sS'Dihua Guo'
p983
F0.20000000000000001
sS'Jan Chomicki'
p984
F0.011049723756906077
sS'Ingmar Weber'
p985
F0.087591240875912413
sS'Elke Achtert'
p986
F0.047217537942664416
sS'Ted Messinger'
p987
F0.16216216216216217
sS'Kilian Q. Weinberger'
p988
F0.066666666666666666
sS'Michael F. Deering'
p989
F0.23076923076923078
sS'Benson Limketkai'
p990
F0.1388888888888889
sS'Simonas Saltenis'
p991
F0.09187279151943463
sS'Cheng Yang'
p992
F0.04195804195804196
sS'Hanan Samet'
p993
F0.0067189249720044789
sS'Farzad Afschari'
p994
F0.14999999999999999
sS'Banu \xc3\x96zden'
p995
F0.026881720430107527
sS'A. Eiger'
p996
F0.25641025641025639
sS'Doug Fang'
p997
F0.25396825396825395
sS'Hyoung-Joo Kim'
p998
F0.15037593984962405
sS'Ion Tim Ieong'
p999
F0.13513513513513514
sS'John Thornton'
p1000
F0.043478260869565216
sS'Alexey Pryakhin'
p1001
F0.059649122807017542
sS'Genevi\xc3\xa8ve Jomier'
p1002
F0.18518518518518517
sS'Srinivasa Eddula'
p1003
F0.18518518518518517
sS'Gonzalo Navarro'
p1004
F0.037037037037037035
sS'Alvaro del Val'
p1005
F0.022813688212927757
sS'Richard Jensen'
p1006
F0.31372549019607843
sS'Sam T. Roweis'
p1007
F0.059523809523809521
sS'Xueqing Gong'
p1008
F0.042857142857142858
sS'Barry I. Soroka'
p1009
F0.27027027027027029
sS'Peter Dadam'
p1010
F0.025380710659898477
sS'Kamal Nigam'
p1011
F0.031746031746031744
sS'Pankaj K. Agarwal'
p1012
F0.042857142857142858
sS'Irwin King'
p1013
F0.018575851393188854
sS'Keith B. Johnson'
p1014
F0.14285714285714285
sS'Reza Sherkat'
p1015
F0.0625
sS'M. Erol Arkun'
p1016
F0.23636363636363636
sS'Amelia Zafra'
p1017
F0.25
sS'Yi-Hong Chu'
p1018
F0.082191780821917804
sS'Michalis Potamias'
p1019
F0.10752688172043011
sS'Yifeng Zheng'
p1020
F0.049382716049382713
sS'J. Geyer'
p1021
F0.12
sS'F. J. Smith'
p1022
F0.15384615384615385
sS'Jin Cao'
p1023
F0.125
sS'Serge Abiteboul'
p1024
F0.012342957901697156
sS'Arnaud Soulet'
p1025
F0.059405940594059403
sS'Sriram Padmanabhan'
p1026
F0.014943960149439602
sS'Markus Schneider'
p1027
F0.20547945205479451
sS'Johan Colliez'
p1028
F0.14492753623188406
sS'Peter K. Allen'
p1029
F0.089285714285714288
sS'Renate Meyer'
p1030
F0.19230769230769232
sS'Kenneth R. Wood'
p1031
F0.058823529411764705
sS'Wei-Cheng Lai'
p1032
F0.16216216216216217
sS'Fabrizio Angiulli'
p1033
F0.032432432432432434
sS'Dibyendu Nandy'
p1034
F0.15873015873015872
sS'Yannis Sismanis'
p1035
F0.036809815950920248
sS'Fei Sha'
p1036
F0.047619047619047616
sS'Sheila Tejada'
p1037
F0.10526315789473684
sS'Hajime Kimura'
p1038
F0.021352313167259787
sS'Rolf A. de By'
p1039
F0.11188811188811189
sS'Fawaz S. Al-Anzi'
p1040
F0.15151515151515152
sS'K. K. Loo'
p1041
F0.058252427184466021
sS'Dennis McLeod'
p1042
F0.065625000000000003
sS'Tomoyuki Tnoue'
p1043
F0.16393442622950818
sS'Mirco Nanni'
p1044
F0.21052631578947367
sS'N. S. Sridharan'
p1045
F0.042553191489361701
sS'Stephen Lin'
p1046
F0.052083333333333336
sS'Masatoshi Yoshikawa'
p1047
F0.039421813403416557
sS'Denis Cau'
p1048
F0.13953488372093023
sS'Michael K. Ng'
p1049
F0.01643835616438356
sS'David Hanley'
p1050
F0.41025641025641024
sS'Christopher Leckie'
p1051
F0.042253521126760563
sS'Fariba Sadri'
p1052
F0.075949367088607597
sS'Hakgene Shin'
p1053
F0.34782608695652173
sS'Thomas Behr'
p1054
F0.17543859649122806
sS'Prashant J. Shenoy'
p1055
F0.048192771084337352
sS'Fernando Ord\xc3\xb3\xc3\xb1ez'
p1056
F0.083333333333333329
sS'Linda C. van der Gaag'
p1057
F0.0625
sS'Deva Ramanan'
p1058
F0.27027027027027029
sS'Jeff Hoyt'
p1059
F0.22222222222222221
sS'Ravi B. Nannapaneni'
p1060
F0.18867924528301888
sS'Jezekiel Ben-Arie'
p1061
F0.17094017094017094
sS'Jim E. Greer'
p1062
F0.11904761904761904
sS'Tony Lai'
p1063
F0.13953488372093023
sS'Alexandros Biliris'
p1064
F0.075983717774762552
sS'Rina Panigrahy'
p1065
F0.061728395061728392
sS'Hui Wang'
p1066
F0.048000000000000001
sS'Bharathi Subramanian'
p1067
F0.24390243902439024
sS'Sushant Jain'
p1068
F0.15789473684210525
sS'Raj D. Iyer'
p1069
F0.10169491525423729
sS'Ming-Chien Shan'
p1070
F0.0084388185654008432
sS'Ehud Gudes'
p1071
F0.10441767068273092
sS'Patrick Bosc'
p1072
F0.10309278350515463
sS'Charles V. Stewart'
p1073
F0.02
sS'Michael O. Akinde'
p1074
F0.086124401913875603
sS'Arie Shoshani'
p1075
F0.047430830039525688
sS'Alan L. Yuille'
p1076
F0.04456824512534819
sS'N. Bridwell'
p1077
F0.27027027027027029
sS'Alvaro Bolivar'
p1078
F0.070588235294117646
sS'H. V. Jagadish'
p1079
F0.013802760552110422
sS'Pedro Jos\xc3\xa9 Marr\xc3\xb3n'
p1080
F0.15151515151515152
sS'Arthur C. Sanderson'
p1081
F0.11235955056179775
sS'Pasi Porkka'
p1082
F0.12
sS'Luis Gravano'
p1083
F0.010300429184549357
sS'Xiaoling Wang'
p1084
F0.057692307692307696
sS'Gultekin \xc3\x96zsoyoglu'
p1085
F0.0056179775280898875
sS'Manoj Chavda'
p1086
F0.27027027027027029
sS'Justin Brickell'
p1087
F0.081081081081081086
sS'J. David Schaffer'
p1088
F0.1388888888888889
sS'Bruce G. Buchanan'
p1089
F0.018083182640144666
sS'Bin Wang'
p1090
F0.025316455696202531
sS'Euthimios Panagos'
p1091
F0.043290043290043288
sS'Yuping Lin'
p1092
F0.14705882352941177
sS'Susan V. Vrbsky'
p1093
F0.16666666666666666
sS'Brian Milch'
p1094
F0.11494252873563218
sS'T. C. Chen'
p1095
F0.16666666666666666
sS'Ying Yan'
p1096
F0.030379746835443037
sS'Alexander Markowetz'
p1097
F0.10810810810810811
sS'Shlomo Zilberstein'
p1098
F0.0055762081784386614
sS'Dai Kobayashi'
p1099
F0.06741573033707865
sS'Luca Cabibbo'
p1100
F0.125
sS'Ying Feng'
p1101
F0.057692307692307696
sS'Michael Steinbrunn'
p1102
F0.072992700729927001
sS'Jan Struyf'
p1103
F0.10185185185185185
sS'Francis Bach'
p1104
F0.09375
sS'Takenao Ohkawa'
p1105
F0.071428571428571425
sS'Vikas Arora'
p1106
F0.098360655737704916
sS'Kyoji Hirata'
p1107
F0.060377358490566038
sS'Wouter B. Teeuw'
p1108
F0.23255813953488372
sS'Christof Hasse'
p1109
F0.061728395061728392
sS'John M. Winn'
p1110
F0.10000000000000001
sS'James M. Coughlan'
p1111
F0.03870967741935484
sS'Bugra Gedik'
p1112
F0.034031413612565446
sS'K. V. M. Naidu'
p1113
F0.11688311688311688
sS'Amarnath Gupta'
p1114
F0.034899328859060399
sS'Prasad Tadepalli'
p1115
F0.0032414910858995136
sS'B. Paul Jenq'
p1116
F0.10000000000000001
sS'Wolfram Burgard'
p1117
F0.018544935805991442
sS'Torsten Grabs'
p1118
F0.040955631399317405
sS'Deepak P'
p1119
F0.10344827586206896
sS'Sandip Sen'
p1120
F0.088235294117647065
sS'Duc Nghia Pham'
p1121
F0.041379310344827586
sS'Michinari Momma'
p1122
F0.042253521126760563
sS'David Taniar'
p1123
F0.088235294117647065
sS'Bernardo Cuenca Grau'
p1124
F0.058823529411764705
sS'Satinder P. Singh'
p1125
F0.0015910898965791568
sS'Assaf Schuster'
p1126
F0.014084507042253521
sS'Shyam Antony'
p1127
F0.27777777777777779
sS'Doron Rotem'
p1128
F0.026104417670682729
sS'C. K. Cheng'
p1129
F0.10714285714285714
sS'David Choi'
p1130
F0.10000000000000001
sS'Amit Aggarwal'
p1131
F0.24390243902439024
sS'Nirvana Meratnia'
p1132
F0.27777777777777779
sS'Anton P. Karadimce'
p1133
F0.15706806282722513
sS'Patrice Godefroid'
p1134
F0.19354838709677419
sS'Sunil Thakar'
p1135
F0.17647058823529413
sS'Yang Song'
p1136
F0.030303030303030304
sS'Flip Korn'
p1137
F0.013824884792626729
sS'Wenyuan Wang'
p1138
F0.083333333333333329
sS'Ramon Sang\xc3\xbcesa'
p1139
F0.16666666666666666
sS'C. Estall'
p1140
F0.15384615384615385
sS'Ian Davidson'
p1141
F0.021739130434782608
sS'Hedieh Yaghmai'
p1142
F0.19354838709677419
sS'Ronald J. Brachman'
p1143
F0.023980815347721823
sS'Fabien Feschet'
p1144
F0.090090090090090086
sS'Nayeem Islam'
p1145
F0.2857142857142857
sS'ShouHan Wang'
p1146
F0.13953488372093023
sS'Bruno Cr\xc3\xa9milleux'
p1147
F0.06741573033707865
sS'Donovan A. Schneider'
p1148
F0.015544041450777202
sS'Frank K. H. A. Dehne'
p1149
F0.068965517241379309
sS'Shin-ichiro Tsudaka'
p1150
F0.10344827586206896
sS'James A. Thom'
p1151
F0.047619047619047616
sS'Melanie Hilario'
p1152
F0.017361111111111112
sS'Chiranjeeb Buragohain'
p1153
F0.16216216216216217
sS'Makoto Yokoo'
p1154
F0.0077319587628865982
sS'Cuiping Li'
p1155
F0.063157894736842107
sS'Marco Patella'
p1156
F0.019736842105263157
sS'Eamonn J. Keogh'
p1157
F0.0014144271570014145
sS'Venkatesan T. Chakaravarthy'
p1158
F0.037499999999999999
sS'Gene Tsudik'
p1159
F0.074999999999999997
sS'Xiaobin Yuan'
p1160
F0.10344827586206896
sS'Feng Jing'
p1161
F0.071428571428571425
sS'Sridhar Rajagopalan'
p1162
F0.018404907975460124
sS'Yi-Leh Wu'
p1163
F0.025316455696202531
sS'Margaret H. Dunham'
p1164
F0.11214953271028037
sS'Fei Pan'
p1165
F0.17647058823529413
sS'Anthony J. Bonner'
p1166
F0.066666666666666666
sS'Joel E. Richardson'
p1167
F0.083682008368200833
sS'C. J. Date'
p1168
F0.049180327868852458
sS'Song Lin'
p1169
F0.047619047619047616
sS'Tariqul Hoque'
p1170
F0.15789473684210525
sS'Alain Rakotomamonjy'
p1171
F0.065217391304347824
sS'Hideo Joho'
p1172
F0.031446540880503145
sS'Vinay Srihari'
p1173
F0.14999999999999999
sS'Raymond T. Ng'
p1174
F0.0033575825405707891
sS'Neil Ching'
p1175
F0.21739130434782608
sS'Stelios Paparizos'
p1176
F0.071005917159763315
sS'J\xc3\xbcrgen Frohn'
p1177
F0.19230769230769232
sS'Narendra Ahuja'
p1178
F0.10648148148148148
sS'Wynne Hsu'
p1179
F0.015414258188824663
sS'Rohit Jain'
p1180
F0.10000000000000001
sS'Lin Yu'
p1181
F0.097087378640776698
sS'Ramakant Nevatia'
p1182
F0.023529411764705882
sS'Shawn R. Wolfe'
p1183
F0.12244897959183673
sS'Steven L. Lytinen'
p1184
F0.02247191011235955
sS'Margrit Betke'
p1185
F0.29411764705882354
sS'Michael Gesmann'
p1186
F0.13698630136986301
sS'Heinrich Niemann'
p1187
F0.10989010989010989
sS'Iris Sheauyin Chu'
p1188
F0.24390243902439024
sS'Atsuyuki Morishima'
p1189
F0.032432432432432434
sS'Arnon Rosenthal'
p1190
F0.0067415730337078653
sS'Derek H. Sleeman'
p1191
F0.03870967741935484
sS'Luc Steels'
p1192
F0.11494252873563218
sS'Surong Wang'
p1193
F0.17647058823529413
sS'Alicia Abella'
p1194
F0.32258064516129031
sS'Shinn-Jang Ho'
p1195
F0.13698630136986301
sS'Richard Relue'
p1196
F0.089552238805970144
sS'Xiangning Liu'
p1197
F0.23809523809523808
sS'Xifeng Yan'
p1198
F0.0042477876106194693
sS'Javier Arroyo'
p1199
F0.18518518518518517
sS'Nicholas C. Makris'
p1200
F0.29411764705882354
sS'Jukka Teuhola'
p1201
F0.10666666666666667
sS'Takashi Washio'
p1202
F0.0036518563603164943
sS'Cedric Nishan Canagarajah'
p1203
F0.23809523809523808
sS'Thomas Neumann'
p1204
F0.026509572901325478
sS'Nathan Srebro'
p1205
F0.035294117647058823
sS'Pekka Kostamaa'
p1206
F0.072289156626506021
sS'Sophie Cluet'
p1207
F0.048872180451127817
sS'Michael Rabinovich'
p1208
F0.029574861367837338
sS'Hans-Dieter Ehrich'
p1209
F0.14084507042253522
sS'Ramin Zabih'
p1210
F0.084210526315789472
sS'Sunil Chakkappen'
p1211
F0.16666666666666666
sS'Rodney A. Brooks'
p1212
F0.042553191489361701
sS'Su-In Lee'
p1213
F0.095238095238095233
sS'Hong-Tai Chou'
p1214
F0.16428571428571428
sS'James Allan'
p1215
F0.0019298809906722419
sS'A. Murat Tekalp'
p1216
F0.22727272727272727
sS'Ming Dong'
p1217
F0.04195804195804196
sS'Slobodanka Djordjevic-Kajan'
p1218
F0.20408163265306123
sS'Juhani Kuittinen'
p1219
F0.13333333333333333
sS'Evimaria Terzi'
p1220
F0.040133779264214048
sS'Dirk Van Gucht'
p1221
F0.020429009193054137
sS'Martin Sk\xc3\xb6ld'
p1222
F0.096774193548387094
sS'Guo Li'
p1223
F0.086956521739130432
sS'Sam Kwong'
p1224
F0.16393442622950818
sS'Claire Leschi'
p1225
F0.11538461538461539
sS'Jian Zhang'
p1226
F0.011152416356877323
sS'Xiaozhu Kang'
p1227
F0.12244897959183673
sS'Bing Liu'
p1228
F0.0038750302736740129
sS'Caroline N. Koff'
p1229
F0.16666666666666666
sS'Pascal Poncelet'
p1230
F0.063492063492063489
sS'William J. McIver Jr.'
p1231
F0.25641025641025639
sS'Tat-Jen Cham'
p1232
F0.069444444444444448
sS'Paolo Merialdo'
p1233
F0.012371134020618556
sS'Dongmei Zhang'
p1234
F0.19607843137254902
sS'Quamrul I. Khan'
p1235
F0.071428571428571425
sS'Hanhua Chen'
p1236
F0.16
sS'Hwan-Seung Yong'
p1237
F0.22222222222222221
sS'Eytan Bakshy'
p1238
F0.20000000000000001
sS'Steve Rozen'
p1239
F0.10416666666666667
sS'Helmut Schmidt'
p1240
F0.15789473684210525
sS'Oscar H. Ibarra'
p1241
F0.11695906432748537
sS'Yan Zhang'
p1242
F0.0095846645367412137
sS'Fabio Porto'
p1243
F0.18181818181818182
sS'Manfred Kaul'
p1244
F0.17543859649122806
sS'Rubao Lee'
p1245
F0.080000000000000002
sS'T. Svensen'
p1246
F0.37209302325581395
sS'Quintin I. Cutts'
p1247
F0.21428571428571427
sS'Evangelos E. Milios'
p1248
F0.053097345132743362
sS'B. S. Manjunath'
p1249
F0.085470085470085472
sS'St\xc3\xa9phane Lopes'
p1250
F0.082758620689655171
sS'Asit Dan'
p1251
F0.032345013477088951
sS'Ken-ichi Hidai'
p1252
F0.23255813953488372
sS'Minrui Zheng'
p1253
F0.1276595744680851
sS'Vebjorn Ljosa'
p1254
F0.04784688995215311
sS'Antonio Albano'
p1255
F0.12903225806451613
sS'Edmund Freeman'
p1256
F0.22222222222222221
sS'Xin Zhou'
p1257
F0.096000000000000002
sS'Chris Clifton'
p1258
F0.0077821011673151752
sS'Brian V. Funt'
p1259
F0.16129032258064516
sS'Zhiwei Zhu'
p1260
F0.11363636363636363
sS'Henry A. Kautz'
p1261
F0.0049301561216105174
sS'Yuko Sakaida'
p1262
F0.16949152542372881
sS'Ruijie Guo'
p1263
F0.125
sS'Michael Kifer'
p1264
F0.060846560846560843
sS'Peter Fankhauser'
p1265
F0.14084507042253522
sS'Weifa Liang'
p1266
F0.15789473684210525
sS'Florin Cutzu'
p1267
F0.15384615384615385
sS'Andr\xc3\xa9s R. Masegosa'
p1268
F0.098039215686274508
sS'Helen M. Thomas'
p1269
F0.018072289156626505
sS'Barbara Catania'
p1270
F0.046153846153846156
sS'Hamideh Afsarmanesh'
p1271
F0.27777777777777779
sS'Ioannis Tsamardinos'
p1272
F0.028301886792452831
sS'Jack Milton'
p1273
F0.27027027027027029
sS'Tomaso Poggio'
p1274
F0.11560693641618497
sS'Kenji Yoshihira'
p1275
F0.078947368421052627
sS'John V. Carlis'
p1276
F0.0625
sS'Ralf Hartmut G\xc3\xbcting'
p1277
F0.054495912806539509
sS'Stefan Wrobel'
p1278
F0.016085790884718499
sS'Congnan Luo'
p1279
F0.15789473684210525
sS'Ravi Murthy'
p1280
F0.035294117647058823
sS'Konstantinos F. Sagonas'
p1281
F0.1111111111111111
sS'Suleyman Cetintas'
p1282
F0.088235294117647065
sS'G. Linderman'
p1283
F0.052910052910052907
sS'Chuancong Gao'
p1284
F0.16666666666666666
sS'Xiaomin Ning'
p1285
F0.125
sS'Jordi Delgado'
p1286
F0.16666666666666666
sS'Margaret H. Butler'
p1287
F0.3125
sS'Mihai Barbuceanu'
p1288
F0.18518518518518517
sS'Shishir Shah'
p1289
F0.1388888888888889
sS'Giuseppe Psaila'
p1290
F0.079365079365079361
sS'D. Sivakumar'
p1291
F0.030821917808219176
sS'Herv\xc3\xa9 Br\xc3\xb6nnimann'
p1292
F0.23076923076923078
sS'M. Howard Williams'
p1293
F0.18018018018018017
sS'Keith Waclena'
p1294
F0.32258064516129031
sS'Peter Br\xc3\xb6ssler'
p1295
F0.20408163265306123
sS'Jin Song Dong'
p1296
F0.17241379310344829
sS'Kumar V. Vadaparty'
p1297
F0.12345679012345678
sS'Mohammed K. Jaber'
p1298
F0.24390243902439024
sS'Giovanni Semeraro'
p1299
F0.034722222222222224
sS'Lizhen Xu'
p1300
F0.14999999999999999
sS'Sitaram Lanka'
p1301
F0.11428571428571428
sS'Paolo Giulio Franciosa'
p1302
F0.18181818181818182
sS'Anna Formica'
p1303
F0.21505376344086022
sS'Bo Hu'
p1304
F0.21276595744680851
sS'Francesco Bonchi'
p1305
F0.01680672268907563
sS'Christian Rich'
p1306
F0.23255813953488372
sS'Daniel Lowd'
p1307
F0.070588235294117646
sS'William Kent'
p1308
F0.053191489361702128
sS'Amy R. Greenwald'
p1309
F0.037499999999999999
sS'Yoram Singer'
p1310
F0.044776119402985072
sS'Rajkumar Sen'
p1311
F0.14634146341463414
sS'Bao-Zhi Qiu'
p1312
F0.16666666666666666
sS'Klaus U. Schulz'
p1313
F0.059999999999999998
sS'M\xc3\xa1rcio de Carvalho'
p1314
F0.081081081081081086
sS'David M. Arnow'
p1315
F0.13636363636363635
sS'Ioannis M. Rekleitis'
p1316
F0.07407407407407407
sS'Lotfi Lakhal'
p1317
F0.079207920792079209
sS'Stefan Kramer'
p1318
F0.00823045267489712
sS'D. Green'
p1319
F0.11538461538461539
sS'Aleksander Kolcz'
p1320
F0.012
sS'Jung-Hwan Oh'
p1321
F0.042253521126760563
sS'I-Min A. Chen'
p1322
F0.034129692832764506
sS'Andrew Y. Ng'
p1323
F0.016403785488958992
sS'Mathias Weske'
p1324
F0.27777777777777779
sS'Wee Keong Ng'
p1325
F0.026246719160104987
sS'Shuigeng Zhou'
p1326
F0.012875536480686695
sS'Yunxiao Ma'
p1327
F0.32258064516129031
sS'Jean-Pierre Cheiney'
p1328
F0.051792828685258967
sS'Allen Chang'
p1329
F0.1276595744680851
sS'Andrea Fusiello'
p1330
F0.16666666666666666
sS'Bernhard Mitschang'
p1331
F0.050709939148073022
sS'Steffen Rendle'
p1332
F0.19607843137254902
sS'Celine Vens'
p1333
F0.15151515151515152
sS'Amr El Abbadi'
p1334
F0.021023765996343691
sS'Ariel Fuxman'
p1335
F0.07407407407407407
sS'Jehan-Fran\xc3\xa7ois P\xc3\xa2ris'
p1336
F0.18604651162790697
sS'Sarit Kraus'
p1337
F0.015483870967741935
sS'Denis Hamad'
p1338
F0.14492753623188406
sS'Herman Iline'
p1339
F0.22727272727272727
sS'Klaus Drosten'
p1340
F0.17543859649122806
sS'Jan-Olof Eklundh'
p1341
F0.17857142857142858
sS'Frank Hutter'
p1342
F0.069767441860465115
sS'Liqin Jiang'
p1343
F0.23255813953488372
sS'Mohand-Said Hacid'
p1344
F0.060606060606060608
sS'Rafi Ahmed'
p1345
F0.10638297872340426
sS'Weiyi Meng'
p1346
F0.0098826436071649173
sS'Feifang Hu'
p1347
F0.13043478260869565
sS'Benjamin Sapp'
p1348
F0.2857142857142857
sS'Janet L. Wiener'
p1349
F0.097859327217125383
sS'Alin Dobra'
p1350
F0.011235955056179775
sS'Klaus Stein'
p1351
F0.09375
sS'Steve Lawrence'
p1352
F0.022556390977443608
sS'Marko Salmenkivi'
p1353
F0.039735099337748346
sS'Mingsen Guo'
p1354
F0.23255813953488372
sS'Joan Feigenbaum'
p1355
F0.09375
sS'Mehrdad Jahangiri'
p1356
F0.10526315789473684
sS'Shile Zhang'
p1357
F0.27027027027027029
sS'Froduald Kabanza'
p1358
F0.025000000000000001
sS'Wenxin Liang'
p1359
F0.13636363636363635
sS'Ragaa Ishak'
p1360
F0.14285714285714285
sS'J\xc3\xa9r\xc3\xb4me Darmont'
p1361
F0.082644628099173556
sS'Zhen Hua Liu'
p1362
F0.096256684491978606
sS'Thomas G\xc3\xa4rtner'
p1363
F0.027149321266968326
sS'Ajit K. Patankar'
p1364
F0.27777777777777779
sS'Daniel C. Y. Ma'
p1365
F0.27027027027027029
sS'David A. Evans'
p1366
F0.032967032967032968
sS'Yasuhiko Morimoto'
p1367
F0.01812688821752266
sS'R. J. Douglass'
p1368
F0.22727272727272727
sS'Dimitris Sacharidis'
p1369
F0.068965517241379309
sS'Hichem Frigui'
p1370
F0.024590163934426229
sS'Benjamin Arai'
p1371
F0.040540540540540543
sS'Philip L. Worthington'
p1372
F0.16666666666666666
sS'Bin Lan'
p1373
F0.10344827586206896
sS'Ulrich Sch\xc3\xa4fer'
p1374
F0.16216216216216217
sS'Jun-Wun Jou'
p1375
F0.21276595744680851
sS'Martin Staudt'
p1376
F0.13333333333333333
sS'Andrew Zisserman'
p1377
F0.12121212121212122
sS'Maguelonne Teisseire'
p1378
F0.11510791366906475
sS'Adriano S. Arantes'
p1379
F0.14285714285714285
sS'Pavel Zezula'
p1380
F0.015544041450777202
sS'Ruoming Jin'
p1381
F0.036991368680641186
sS'Stavri G. Nikolov'
p1382
F0.23809523809523808
sS'Andrew J. Hanson'
p1383
F0.15873015873015872
sS'Padhraic Smyth'
p1384
F0.0054259359739555072
sS'Joji Takei'
p1385
F0.16393442622950818
sS'Lu Qin'
p1386
F0.068965517241379309
sS'Allen R. Hanson'
p1387
F0.055248618784530384
sS'V. Puig'
p1388
F0.25641025641025639
sS'Xiaoying Wu'
p1389
F0.061224489795918366
sS'Rahul Shah'
p1390
F0.030848329048843187
sS'Brian Potetz'
p1391
F0.14999999999999999
sS'Brom Mahbod'
p1392
F0.20000000000000001
sS'Srikanta J. Bedathur'
p1393
F0.089999999999999997
sS'Steven D. Whitehead'
p1394
F0.10638297872340426
sS'Rakesh Agrawal'
p1395
F0.0083314047674149499
sS'Chia-Chen Yen'
p1396
F0.068965517241379309
sS'Erich J. Neuhold'
p1397
F0.055762081784386616
sS'Sanjay Agrawal'
p1398
F0.012658227848101266
sS'Michael J. Donahoo'
p1399
F0.06097560975609756
sS'Yatin P. Saraiya'
p1400
F0.064935064935064929
sS'Frank E. Levine'
p1401
F0.1276595744680851
sS'Dirk Bahle'
p1402
F0.16216216216216217
sS'Alexandru Chitea'
p1403
F0.15384615384615385
sS'Xu-Dong Zhang'
p1404
F0.064102564102564097
sS'Yao Zhao'
p1405
F0.18181818181818182
sS'Hua Lu'
p1406
F0.037735849056603772
sS'Jan M. Zytkow'
p1407
F0.01507537688442211
sS'Nickolay I. Hristov'
p1408
F0.29411764705882354
sS'Lori Alperin Resnick'
p1409
F0.16129032258064516
sS'Abderrahim Labbi'
p1410
F0.16216216216216217
sS'Sebasti\xc3\xa1n Ventura'
p1411
F0.25
sS'Mary F. Fernandez'
p1412
F0.086956521739130432
sS'Ramesh Subramanian'
p1413
F0.20408163265306123
sS'Takeshi Okadome'
p1414
F0.13157894736842105
sS'Yen-Yu Lin'
p1415
F0.22222222222222221
sS'Daniel A. Keim'
p1416
F0.0069244085401038661
sS'Hartmut Freitag'
p1417
F0.16666666666666666
sS'Terence R. Smith'
p1418
F0.10344827586206896
sS'Xingquan Zhu'
p1419
F0.017167381974248927
sS'Jianyong Wang'
p1420
F0.031070195627157654
sS'Bruno Defude'
p1421
F0.057803468208092484
sS'Martin Theobald'
p1422
F0.030664395229982964
sS'Xin Li'
p1423
F0.011152416356877323
sS'Yann LeCun'
p1424
F0.056818181818181816
sS'Michel E. Adiba'
p1425
F0.055096418732782371
sS'Naiyao Zhang'
p1426
F0.27777777777777779
sS'Theo H\xc3\xa4rder'
p1427
F0.015723270440251572
sS'Henry Schneiderman'
p1428
F0.25641025641025639
sS'Joel L. Wolf'
p1429
F0.020905923344947737
sS'Neeta Prasad'
p1430
F0.18518518518518517
sS'Chris Giannella'
p1431
F0.047244094488188976
sS'Todd J. Green'
p1432
F0.056603773584905662
sS'Reasey Praing'
p1433
F0.25
sS'Gerd Heber'
p1434
F0.17647058823529413
sS'Jianping Fan'
p1435
F0.092485549132947972
sS'Daniel Kunkle'
p1436
F0.15789473684210525
sS'Daniel T. Schuh'
p1437
F0.22222222222222221
sS'Bin Zhang'
p1438
F0.016901408450704224
sS'Boris Motik'
p1439
F0.05181347150259067
sS'Dimitrios Gunopulos'
p1440
F0.026448029621793177
sS'Xiaohong Wang'
p1441
F0.15384615384615385
sS'Olga Veksler'
p1442
F0.055045871559633031
sS'Raymond Chi-Wing Wong'
p1443
F0.025210084033613446
sS'Alva Erwin'
p1444
F0.17647058823529413
sS'Zhenguo Li'
p1445
F0.14925373134328357
sS'Quingping Zhao'
p1446
F0.15384615384615385
sS'Emmanuel Onuegbe'
p1447
F0.20408163265306123
sS'Zhengdao Xu'
p1448
F0.050000000000000003
sS'Gavan Duffy'
p1449
F0.09375
sS'Bruce E. Martin'
p1450
F0.18867924528301888
sS'David Harris'
p1451
F0.23255813953488372
sS'Bing Xu'
p1452
F0.23255813953488372
sS'Peter Kunath'
p1453
F0.019704433497536946
sS'Haibo Hu'
p1454
F0.081967213114754092
sS'Yugyung Lee'
p1455
F0.043478260869565216
sS'Qian Chen'
p1456
F0.080000000000000002
sS'Sham Kakade'
p1457
F0.10752688172043011
sS'Spyros Zoupanos'
p1458
F0.18181818181818182
sS'Rohan Angrish'
p1459
F0.17647058823529413
sS'John Krumm'
p1460
F0.21857923497267759
sS'Shigenobu Kobayashi'
p1461
F0.011928429423459244
sS'Pamela Drew'
p1462
F0.064516129032258063
sS'Marc Maier'
p1463
F0.040540540540540543
sS'Jung-Ho Ahn'
p1464
F0.22727272727272727
sS'Jiangong Zhang'
p1465
F0.082191780821917804
sS'Kim Marriott'
p1466
F0.068181818181818177
sS'David Page'
p1467
F0.010830324909747292
sS'Michael Caruso'
p1468
F0.26315789473684209
sS'Roger Zimmermann'
p1469
F0.079470198675496692
sS'\xc3\x96zg\xc3\xbcr Simsek'
p1470
F0.030927835051546393
sS'Jagrati Agrawal'
p1471
F0.10000000000000001
sS'Yukai He'
p1472
F0.084507042253521125
sS'Deeptiman Jugessur'
p1473
F0.3125
sS'Alexander R. Statnikov'
p1474
F0.058823529411764705
sS'Yoshinori Hara'
p1475
F0.089385474860335198
sS'Purushottam Kulkarni'
p1476
F0.086956521739130432
sS'Malcolm J. A. Strens'
p1477
F0.03015075376884422
sS'Shuicheng Yan'
p1478
F0.022123893805309734
sS'Prabhakar Raghavan'
p1479
F0.0090909090909090905
sS'Keunjoo Kwon'
p1480
F0.057142857142857141
sS'Jitendra Malik'
p1481
F0.035335689045936397
sS'Tracy Pham'
p1482
F0.1360544217687075
sS'Jin Shi'
p1483
F0.21276595744680851
sS'David J. Kriegman'
p1484
F0.096463022508038579
sS'Chinya V. Ravishankar'
p1485
F0.045325779036827198
sS'Meichun Hsu'
p1486
F0.015873015873015872
sS'Donald R. Deutsch'
p1487
F0.20000000000000001
sS'Utkarsh Srivastava'
p1488
F0.034482758620689655
sS'Cosmin Cremarenco'
p1489
F0.20000000000000001
sS'Mary F. Fern\xc3\xa1ndez'
p1490
F0.014527845036319613
sS'Hiroshi Nakajima'
p1491
F0.07792207792207792
sS'Muthiah M. Muthaia Chettiar'
p1492
F0.19354838709677419
sS'Charis Ermopoulos'
p1493
F0.10526315789473684
sS'Chuanjun Li'
p1494
F0.13636363636363635
sS'Claudia Plant'
p1495
F0.032432432432432434
sS'C. V. Ramamoorthy'
p1496
F0.14285714285714285
sS'Michail Vlachos'
p1497
F0.0041551246537396124
sS'Oliver J. Woodford'
p1498
F0.20000000000000001
sS'Dennis Shasha'
p1499
F0.0062794348508634227
sS'Pavan Kumar C. Singitham'
p1500
F0.15384615384615385
sS'Geneva G. Belford'
p1501
F0.071748878923766815
sS'Clemens Arth'
p1502
F0.1388888888888889
sS'Andrei Lopatenko'
p1503
F0.092307692307692313
sS'Daniel M. Dias'
p1504
F0.055045871559633031
sS'Igor L. Markov'
p1505
F0.10000000000000001
sS'Roberto Gemello'
p1506
F0.053571428571428568
sS'Norihiro Abe'
p1507
F0.17094017094017094
sS'Anant Jhingran'
p1508
F0.065162907268170422
sS'Sebastian Wurst'
p1509
F0.16216216216216217
sS'Maytham Safar'
p1510
F0.31372549019607843
sS'Herv\xc3\xa9 Gallaire'
p1511
F0.069930069930069935
sS'Arancha Casal'
p1512
F0.18867924528301888
sS'Masahiro Ono'
p1513
F0.06741573033707865
sS'Gerald Kiernan'
p1514
F0.059523809523809521
sS'David Scott Warren'
p1515
F0.051612903225806452
sS'Aaron M. Tenenbaum'
p1516
F0.13636363636363635
sS'Honglak Lee'
p1517
F0.13636363636363635
sS'Dalia Motzkin'
p1518
F0.17647058823529413
sS'Ian Simon'
p1519
F0.12658227848101267
sS'Thomas M. Strat'
p1520
F0.06097560975609756
sS'William J. Kaiser'
p1521
F0.14999999999999999
sS'Edward M. Riseman'
p1522
F0.077120822622107968
sS'Toshikazu Wada'
p1523
F0.11764705882352941
sS'Thomas Lukasiewicz'
p1524
F0.13223140495867769
sS'Fabrizio Ferrandina'
p1525
F0.27027027027027029
sS'Christophe de Maindreville'
p1526
F0.016172506738544475
sS'Alistair Moffat'
p1527
F0.010135135135135136
sS'Victor M. Markowitz'
p1528
F0.024513338139870222
sS'Yun Chen'
p1529
F0.17910447761194029
sS'Ziyu Guan'
p1530
F0.11538461538461539
sS'Pradeep K. Dubey'
p1531
F0.15789473684210525
sS'Dimitris N. Metaxas'
p1532
F0.016778523489932886
sS'Dmitry B. Goldgof'
p1533
F0.050890585241730277
sS'DucDung Nguyen'
p1534
F0.073170731707317069
sS'Gregory Karvounarakis'
p1535
F0.13636363636363635
sS'Mohammad El-Hajj'
p1536
F0.043795620437956206
sS'Anand Rajaraman'
p1537
F0.04456824512534819
sS'Michael A. Peshkin'
p1538
F0.25641025641025639
sS'Ziming Zhuang'
p1539
F0.028037383177570093
sS'Karl Denninghoff'
p1540
F0.18518518518518517
sS'Andrew K. C. Wong'
p1541
F0.11904761904761904
sS'Maxim Likhachev'
p1542
F0.076923076923076927
sS'Andrew G. Barto'
p1543
F0.0060120240480961923
sS'Malcolm R. K. Ryan'
p1544
F0.027906976744186046
sS'Amar Mukherjee'
p1545
F0.125
sS'Irini Fundulaki'
p1546
F0.023166023166023165
sS'Steven M. Seitz'
p1547
F0.065789473684210523
sS'De-Sheng Wang'
p1548
F0.1388888888888889
sS'J\xc3\xa9r\xc3\xb4me Lang'
p1549
F0.0088495575221238937
sS'Wolfgang Scheufele'
p1550
F0.068181818181818177
sS'Nitin Kumar'
p1551
F0.13698630136986301
sS'George M. Bryan'
p1552
F0.12
sS'Wen-Chi Hou'
p1553
F0.0097719869706840382
sS'Girish Pathak'
p1554
F0.25641025641025639
sS'Francesca Toni'
p1555
F0.068181818181818177
sS'Jian Huang'
p1556
F0.023715415019762844
sS'Dragan Stojanovic'
p1557
F0.20408163265306123
sS'Kazuhito Kobayashi'
p1558
F0.13636363636363635
sS'Dafna Shahaf'
p1559
F0.053097345132743362
sS'Florian Matthes'
p1560
F0.14814814814814814
sS'Qi Zhong'
p1561
F0.096774193548387094
sS'Holger Bast'
p1562
F0.060606060606060608
sS'Marlon Dumas'
p1563
F0.0390625
sS'Einar Mykletun'
p1564
F0.20000000000000001
sS'Daniel D. Morris'
p1565
F0.22222222222222221
sS'Paul Watson'
p1566
F0.071428571428571425
sS'Venu Vasudevan'
p1567
F0.25
sS'Ho-fung Leung'
p1568
F0.15789473684210525
sS'D. Wildfogel'
p1569
F0.14285714285714285
sS'H. D. K. Moonesinghe'
p1570
F0.13333333333333333
sS'Edmond HaoCun Wu'
p1571
F0.066666666666666666
sS'Yutaka Kimura'
p1572
F0.12244897959183673
sS'Shusaku Tsumoto'
p1573
F0.0076530612244897957
sS'Scott E. Hudson'
p1574
F0.16949152542372881
sS'Mehmet Altinel'
p1575
F0.062015503875968991
sS'Pascal Van Hentenryck'
p1576
F0.0063965884861407248
sS'Letizia Tanca'
p1577
F0.088495575221238937
sS'Angshuman Bagchi'
p1578
F0.29411764705882354
sS'Joemon M. Jose'
p1579
F0.0046296296296296294
sS'Rosine Cicchetti'
p1580
F0.072992700729927001
sS'Michael May'
p1581
F0.20833333333333334
sS'Andreas Renner'
p1582
F0.33333333333333331
sS'A. Nakamura'
p1583
F0.32258064516129031
sS'Hava T. Siegelmann'
p1584
F0.10638297872340426
sS'Varun Kacholia'
p1585
F0.10909090909090909
sS'William M. Shui'
p1586
F0.13333333333333333
sS'Du Q. Huynh'
p1587
F0.086956521739130432
sS'Mohana Krishna Lakhamraju'
p1588
F0.34482758620689657
sS'Haruo Yokota'
p1589
F0.016901408450704224
sS'Alex Holub'
p1590
F0.13698630136986301
sS'Gad M. Landau'
p1591
F0.14634146341463414
sS'Krishna Kummamuru'
p1592
F0.020618556701030927
sS'Minghua Zhang'
p1593
F0.053571428571428568
sS'Akash Kushal'
p1594
F0.26315789473684209
sS'St\xc3\xa9phane Herbin'
p1595
F0.21276595744680851
sS'Shivakumar Vaithyanathan'
p1596
F0.012145748987854251
sS'Sebastian Thrun'
p1597
F0.011716461628588167
sS'Ryo Suzuki'
p1598
F0.27027027027027029
sS'W. Eric L. Grimson'
p1599
F0.032573289902280131
sS'Bruce Cottman'
p1600
F0.24390243902439024
sS'Masahiro Mori'
p1601
F0.10638297872340426
sS'Carlos Diuk'
p1602
F0.27160493827160492
sS'Michael A. Milicia'
p1603
F0.20000000000000001
sS'Parag Singla'
p1604
F0.12807881773399016
sS'Philippe Richard'
p1605
F0.10928961748633879
sS'Karen C. Davis'
p1606
F0.16129032258064516
sS'Scott L. Vandenberg'
p1607
F0.20408163265306123
sS'Hasan M. Jamil'
p1608
F0.090497737556561084
sS'Iosif Lazaridis'
p1609
F0.04975124378109453
sS'Ravi Janardan'
p1610
F0.039603960396039604
sS'Stephen M. Majercik'
p1611
F0.13953488372093023
sS'John Shepherd'
p1612
F0.089552238805970144
sS'Mechtild Wallrath'
p1613
F0.076923076923076927
sS'Hua Zhu'
p1614
F0.075949367088607597
sS'Pradeep K. Khosla'
p1615
F0.22727272727272727
sS'Vittorio Ferrari'
p1616
F0.21276595744680851
sS'Qifa Ke'
p1617
F0.11538461538461539
sS'Ye-In Chang'
p1618
F0.15789473684210525
sS'Jianwen Su'
p1619
F0.053435114503816793
sS'Heinz Uphoff'
p1620
F0.20000000000000001
sS'Olivia R. Liu Sheng'
p1621
F0.22727272727272727
sS'Zhigang Li'
p1622
F0.11320754716981132
sS'Adrian Kaehler'
p1623
F0.26315789473684209
sS'Shipra Agrawal'
p1624
F0.11764705882352941
sS'Weining Qian'
p1625
F0.024896265560165973
sS'Jonathan E. Cook'
p1626
F0.18181818181818182
sS'Karin Kailing'
p1627
F0.073943661971830985
sS'Bee-Chung Chen'
p1628
F0.03614457831325301
sS'Stuart C. Shapiro'
p1629
F0.024213075060532687
sS'J. Eliot B. Moss'
p1630
F0.15492957746478872
sS'Renu Kurien Bostwick'
p1631
F0.050000000000000003
sS'Jeong-Ki Kim'
p1632
F0.125
sS'Patrick Gallinari'
p1633
F0.0062111801242236021
sS'Matthew Richardson'
p1634
F0.028846153846153848
sS'Vinay K. Chaudhri'
p1635
F0.063291139240506333
sS'Chang-Hung Lee'
p1636
F0.052401746724890827
sS'Donald J. Haderle'
p1637
F0.045801526717557252
sS'Qiuxia Chen'
p1638
F0.16666666666666666
sS'Arun Iyengar'
p1639
F0.029702970297029702
sS'Alexander Hinneburg'
p1640
F0.012711864406779662
sS'Michael Murphy'
p1641
F0.27777777777777779
sS'Maxim A. Batalin'
p1642
F0.14999999999999999
sS'Daniel R. Fernandes'
p1643
F0.11764705882352941
sS'Yoshihiko Nomura'
p1644
F0.16949152542372881
sS'Jing Wu'
p1645
F0.06741573033707865
sS'Ion Stoica'
p1646
F0.060606060606060608
sS'Sunita Sarawagi'
p1647
F0.016893477240732049
sS'Mi Zhou'
p1648
F0.057142857142857141
sS'J. M. Edgington'
p1649
F0.1875
sS'Raymond To'
p1650
F0.1875
sS'Sabine Loudcher Rabas\xc3\xa9da'
p1651
F0.15789473684210525
sS'Klemens B\xc3\xb6hm'
p1652
F0.032085561497326207
sS'Ming-Chuan Hung'
p1653
F0.20000000000000001
sS'Sargur N. Srihari'
p1654
F0.021881838074398249
sS'Erwin Leonardi'
p1655
F0.035928143712574849
sS'D. N. Kamber'
p1656
F0.21276595744680851
sS'Markus Hegland'
p1657
F0.064516129032258063
sS'Brad Adelberg'
p1658
F0.042857142857142858
sS'Takeshi Fukuda'
p1659
F0.015915119363395226
sS'Y\xc3\xbccel Saygin'
p1660
F0.078947368421052627
sS'Jason Nieh'
p1661
F0.030612244897959183
sS'Ji-Rong Wen'
p1662
F0.019700214132762312
sS'Gang Gou'
p1663
F0.13533834586466165
sS'Akifumi Makinouchi'
p1664
F0.052631578947368418
sS'Mehul A. Shah'
p1665
F0.020761245674740483
sS'Raymond K. Neff'
p1666
F0.18867924528301888
sS'Gregory M. Provan'
p1667
F0.018461538461538463
sS'Loreto Bravo'
p1668
F0.030927835051546393
sS'Richard Cooper'
p1669
F0.17647058823529413
sS'Maurice van Keulen'
p1670
F0.02247191011235955
sS'Richard Hull'
p1671
F0.027337342810278841
sS'Jo\xc3\xa3o Marques-Silva'
p1672
F0.17647058823529413
sS'Fumihide Itoh'
p1673
F0.24390243902439024
sS'Alexa Hauck'
p1674
F0.26315789473684209
sS'Zografoula Vagena'
p1675
F0.016713091922005572
sS'David V. Pynadath'
p1676
F0.072289156626506021
sS'Trevor Strohman'
p1677
F0.057142857142857141
sS'Arne Koopman'
p1678
F0.14999999999999999
sS'Kenneth Smith'
p1679
F0.13333333333333333
sS'Karl T. Ulrich'
p1680
F0.15384615384615385
sS'Jerry Kiernan'
p1681
F0.012515644555694618
sS'Kun-Lung Wu'
p1682
F0.023224043715846996
sS'Zubair Asad'
p1683
F0.30303030303030304
sS'Idaku Ishii'
p1684
F0.16393442622950818
sS'Alexandros Kalousis'
p1685
F0.015847860538827259
sS'Gia Toan Nguyen'
p1686
F0.086956521739130432
sS'Xinqiang Zuo'
p1687
F0.068181818181818177
sS'Wen-Syan Li'
p1688
F0.012967581047381545
sS'Norbert Fuhr'
p1689
F0.010572687224669603
sS'Randy H. Katz'
p1690
F0.032840722495894911
sS'Lisa Ann Smith'
p1691
F0.10000000000000001
sS'Chi-Wai Fung'
p1692
F0.14705882352941177
sS'Christopher M. Stone'
p1693
F0.22727272727272727
sS'\xc3\x98ystein Torbj\xc3\xb8rnsen'
p1694
F0.032786885245901641
sS'Toshiyuki Amano'
p1695
F0.27027027027027029
sS'Moninder Singh'
p1696
F0.029411764705882353
sS'Thomas J. Walsh'
p1697
F0.055555555555555552
sS'Juho Rousu'
p1698
F0.024896265560165973
sS'Michael Wurst'
p1699
F0.063157894736842107
sS'Gregory Dudek'
p1700
F0.025931928687196109
sS'Scott Henningen'
p1701
F0.23255813953488372
sS'Donald B. Gennery'
p1702
F0.20408163265306123
sS'Irving L. Traiger'
p1703
F0.18181818181818182
sS'Linan Jiang'
p1704
F0.06741573033707865
sS'Siddhesh Bhobe'
p1705
F0.1276595744680851
sS'Andreas Gawecki'
p1706
F0.10344827586206896
sS'Liuba Shrira'
p1707
F0.32258064516129031
sS'Jason Wolfe'
p1708
F0.125
sS'Kihong Kim'
p1709
F0.054545454545454543
sS'Shmuel T. Klein'
p1710
F0.021660649819494584
sS'Frank McSherry'
p1711
F0.043478260869565216
sS'Werner Geyer'
p1712
F0.10909090909090909
sS'Ram Nevatia'
p1713
F0.086580086580086577
sS'Norbert Beckmann'
p1714
F0.15789473684210525
sS'Christer B\xc3\xa4ckstr\xc3\xb6m'
p1715
F0.027649769585253458
sS'Robert L. Grossman'
p1716
F0.11307420494699646
sS'Amit Kumar Pandey'
p1717
F0.10256410256410256
sS'Jerre D. Noe'
p1718
F0.14084507042253522
sS'Antonella Guzzo'
p1719
F0.08771929824561403
sS'Alexander Brodsky'
p1720
F0.07662835249042145
sS'Walter L. H\xc3\xbcrsch'
p1721
F0.22727272727272727
sS'Takehisa Yairi'
p1722
F0.042735042735042736
sS'Eric Ng Ka Ka'
p1723
F0.16666666666666666
sS'Ivor W. Tsang'
p1724
F0.045977011494252873
sS'Michael Pfeiffer'
p1725
F0.1111111111111111
sS'Zoran Stojanovic'
p1726
F0.20408163265306123
sS'Xiao Qin'
p1727
F0.36781609195402298
sS'Mehmet Ercan Nergiz'
p1728
F0.15384615384615385
sS'Kazimierz Subieta'
p1729
F0.08771929824561403
sS'Hanqing Lu'
p1730
F0.18181818181818182
sS'John F. Santore'
p1731
F0.27777777777777779
sS'Kouzou Ohara'
p1732
F0.040000000000000001
sS'Walt Kohler'
p1733
F0.13333333333333333
sS'Michael Chau'
p1734
F0.10909090909090909
sS'G. Decorte'
p1735
F0.25641025641025639
sS'Jagannathan Srinivasan'
p1736
F0.0043859649122807015
sS'Pavan Aduri'
p1737
F0.14999999999999999
sS'Alexandre Termier'
p1738
F0.081081081081081086
sS'Fran\xc3\xa7oise Fabret'
p1739
F0.046082949308755762
sS'Robert E. Stepp'
p1740
F0.1388888888888889
sS'Senmiao Yuan'
p1741
F0.096774193548387094
sS'St\xc3\xa9phane Canu'
p1742
F0.058823529411764705
sS'Marc H. Scholl'
p1743
F0.070422535211267609
sS'Tarik Hadzic'
p1744
F0.058252427184466021
sS'Tolga Urhan'
p1745
F0.030927835051546393
sS'Kevin Lang'
p1746
F0.23076923076923078
sS'David Lo'
p1747
F0.098360655737704916
sS'Richard J. Campbell'
p1748
F0.37037037037037035
sS'Henry Lieberman'
p1749
F0.11904761904761904
sS'Marco Roveri'
p1750
F0.055045871559633031
sS'Manfred K. Warmuth'
p1751
F0.024896265560165973
sS'Antoine Bordes'
p1752
F0.14285714285714285
sS'Vladimir Zadorozhny'
p1753
F0.058823529411764705
sS'Markos Zaharioudakis'
p1754
F0.044117647058823532
sS'Peter Rosenthal'
p1755
F0.27450980392156865
sS'Pieter Abbeel'
p1756
F0.037974683544303799
sS'Roger Y. Tsai'
p1757
F0.15384615384615385
sS'Andreas Zachmann'
p1758
F0.20000000000000001
sS'Qing Zhang'
p1759
F0.060606060606060608
sS'Qingzhao Tan'
p1760
F0.040816326530612242
sS'Pierre Cointe'
p1761
F0.23255813953488372
sS'Marc Gemis'
p1762
F0.28169014084507044
sS'Carsten Rother'
p1763
F0.086956521739130432
sS'James M. Rehg'
p1764
F0.036281179138321996
sS'Yoram Yakimovsky'
p1765
F0.17857142857142858
sS'Andries Kruger'
p1766
F0.098360655737704916
sS'Pat Langley'
p1767
F0.0032171581769436996
sS'William Perrizo'
p1768
F0.034261241970021415
sS'Prasad M. Deshpande'
p1769
F0.14999999999999999
sS'Angel Domingo Sappa'
p1770
F0.1111111111111111
sS'George Kollios'
p1771
F0.033158813263525308
sS'Rada Chirkova'
p1772
F0.033395176252319109
sS'Michael J. Muller'
p1773
F0.10909090909090909
sS'Ugur \xc3\x87etintemel'
p1774
F0.0031430068098480882
sS'Yukiyoshi Saito'
p1775
F0.12244897959183673
sS'B. Gopinath'
p1776
F0.25641025641025639
sS'Jerome Fessy'
p1777
F0.27777777777777779
sS'Laks V. S. Lakshmanan'
p1778
F0.012322628827483197
sS'John R. Anderson'
p1779
F0.029556650246305417
sS'YounSun Cho'
p1780
F0.18181818181818182
sS'Bethany R. Leffler'
p1781
F0.16666666666666666
sS'Kaile Su'
p1782
F0.014742014742014743
sS'Sukwon Chung'
p1783
F0.26315789473684209
sS'Can Wang'
p1784
F0.07792207792207792
sS'Enrico Nardelli'
p1785
F0.14492753623188406
sS'Eugene Agichtein'
p1786
F0.0067189249720044789
sS'Shimon Ullman'
p1787
F0.30476190476190479
sS'Debora Donato'
p1788
F0.066666666666666666
sS'Gary William Flake'
p1789
F0.093023255813953487
sS'Oskar Dressler'
p1790
F0.038216560509554139
sS'Chun Li'
p1791
F0.1875
sS'Fei Zheng'
p1792
F0.036363636363636362
sS'Artur Loza'
p1793
F0.23809523809523808
sS'Frank Manola'
p1794
F0.042918454935622317
sS'Jayavel Shanmugasundaram'
p1795
F0.025922233300099701
sS'Soon Young Jung'
p1796
F0.10752688172043011
sS'Thomas R\xc3\xb6lleke'
p1797
F0.031847133757961783
sS'Jeff Erickson'
p1798
F0.13043478260869565
sS'Martin Styner'
p1799
F0.27777777777777779
sS'Wei Fan'
p1800
F0.0076947739660147485
sS'Kun-Ta Chuang'
p1801
F0.013215859030837005
sS'Prasanna G. Mulgaonkar'
p1802
F0.26315789473684209
sS'Muad Abu-Ata'
p1803
F0.13953488372093023
sS'Theodore W. Leung'
p1804
F0.24390243902439024
sS'Nick Koudas'
p1805
F0.0048697861528689389
sS'G\xc3\xb6sta Grahne'
p1806
F0.043795620437956206
sS'Qingshan Luo'
p1807
F0.35714285714285715
sS'Charles E. Thorpe'
p1808
F0.092592592592592587
sS'Hans-Ulrich Krieger'
p1809
F0.16216216216216217
sS'Paul Brown'
p1810
F0.085561497326203204
sS'R. Yen'
p1811
F0.27027027027027029
sS'C\xc3\xa9sar A. Galindo-Legaria'
p1812
F0.0061349693251533744
sS'Benjamin G. Zorn'
p1813
F0.18181818181818182
sS'Elena S\xc3\xa1nchez-Nielsen'
p1814
F0.24390243902439024
sS'Min Fang'
p1815
F0.15789473684210525
sS'Fusheng Wang'
p1816
F0.027210884353741496
sS'Kanthi Nagaraj'
p1817
F0.13333333333333333
sS'Jeff G. Schneider'
p1818
F0.025862068965517241
sS'Zhaohui Xie'
p1819
F0.23423423423423423
sS'Brigham Anderson'
p1820
F0.16949152542372881
sS'Yeong-Joon Kim'
p1821
F0.063157894736842107
sS'Huaming Liao'
p1822
F0.080000000000000002
sS'Hiroshi Mamitsuka'
p1823
F0.045801526717557252
sS'Krithi Ramamritham'
p1824
F0.017298735861610112
sS'Mehedi Masud'
p1825
F0.20689655172413793
sS'Jan Rittinger'
p1826
F0.028037383177570093
sS'Jugal K. Kalita'
p1827
F0.052631578947368418
sS'Fabrizio Silvestri'
p1828
F0.021505376344086023
sS'Philip A. Bernstein'
p1829
F0.0035335689045936395
sS'Gunter Schlageter'
p1830
F0.050847457627118647
sS'Xueyan Tang'
p1831
F0.086956521739130432
sS'P\xc3\xa1vel Calado'
p1832
F0.0061224489795918364
sS'Sihem Amer-Yahia'
p1833
F0.021397105097545627
sS'David McArthur'
p1834
F0.11627906976744186
sS'Edoardo Corsetti'
p1835
F0.21276595744680851
sS'Tong Zheng'
p1836
F0.15789473684210525
sS'Christos Faloutsos'
p1837
F0.0052613118204138899
sS'Oliver G\xc3\xbcnther'
p1838
F0.15662650602409639
sS'Suvrit Sra'
p1839
F0.031914893617021274
sS'Mario Boley'
p1840
F0.10909090909090909
sS'Gavin M. Bierman'
p1841
F0.28169014084507044
sS'Diego Fuxman'
p1842
F0.17142857142857143
sS'Eric Grimson'
p1843
F0.080000000000000002
sS'Tom\xc3\xa1s Skopal'
p1844
F0.063157894736842107
sS'Ralph Busse'
p1845
F0.21739130434782608
sS'Hao Yang'
p1846
F0.099173553719008267
sS'Baw-Jhiune Liu'
p1847
F0.10169491525423729
sS'Michael J. Carey'
p1848
F0.016401198549124744
sS'Mario A. Nascimento'
p1849
F0.11805555555555555
sS'Kurt M. Dresner'
p1850
F0.098360655737704916
sS'Michael J. Zwilling'
p1851
F0.10714285714285714
sS'Diego Calvanese'
p1852
F0.0058038305281485781
sS'Sang Wook Lee'
p1853
F0.15873015873015872
sS'Craig E. Wills'
p1854
F0.064777327935222673
sS'Ee-Peng Lim'
p1855
F0.0086355785837651123
sS'Waldemar Wieczerzycki'
p1856
F0.10752688172043011
sS'Samrat Ganguly'
p1857
F0.065217391304347824
sS'Jun Sese'
p1858
F0.060606060606060608
sS'Zhao-Hui Tang'
p1859
F0.12658227848101267
sS'S. Buroff'
p1860
F0.35714285714285715
sS'Takahira Yamaguchi'
p1861
F0.071428571428571425
sS'Annita N. Wilschut'
p1862
F0.050251256281407038
sS'Rosana S. G. Lanzelotte'
p1863
F0.052173913043478258
sS'Martin L. Polaschek'
p1864
F0.38095238095238093
sS'David Wilhite'
p1865
F0.081300813008130079
sS'Alexandre Albore'
p1866
F0.050000000000000003
sS'V. Prasad Chakka'
p1867
F0.14285714285714285
sS'Jim Griffioen'
p1868
F0.21276595744680851
sS'Peter Bailey'
p1869
F0.045112781954887216
sS'Sivan Yogev'
p1870
F0.12
sS'Gennaro Iaccarino'
p1871
F0.21428571428571427
sS'Jin Soung Yoo'
p1872
F0.039840637450199202
sS'Nadav Eiron'
p1873
F0.035928143712574849
sS'Suman Nath'
p1874
F0.12121212121212122
sS'Jack Minker'
p1875
F0.035242290748898682
sS'Luc Stells'
p1876
F0.19354838709677419
sS'Moses Charikar'
p1877
F0.031413612565445025
sS'Ki-Hyung Hong'
p1878
F0.21276595744680851
sS'Arvind Nithrakashyap'
p1879
F0.17142857142857143
sS'John McPherson'
p1880
F0.071428571428571425
sS'E. Gordon Powell'
p1881
F0.18181818181818182
sS'Martha W. Evens'
p1882
F0.050000000000000003
sS'Anastasios Kementsietsidis'
p1883
F0.019966722129783693
sS'Jens Teubner'
p1884
F0.017191977077363897
sS'Kiri Wagstaff'
p1885
F0.026666666666666668
sS'Warren P. Seering'
p1886
F0.10526315789473684
sS'Qi Zhang'
p1887
F0.016260162601626018
sS'Jacobus E. van der Merwe'
p1888
F0.16666666666666666
sS'David Hawking'
p1889
F0.015706806282722512
sS'Kiran J. Achyutuni'
p1890
F0.13953488372093023
sS'Zue-An Chang'
p1891
F0.11538461538461539
sS'Nandit Soparkar'
p1892
F0.024590163934426229
sS'Todd Cornett'
p1893
F0.22222222222222221
sS'Min Wang'
p1894
F0.0079681274900398405
sS'Jurgen Annevelink'
p1895
F0.12987012987012986
sS'Daniel Gyllstrom'
p1896
F0.10000000000000001
sS'Anastassia Ailamaki'
p1897
F0.025613660618996798
sS'Yi-Hung Wu'
p1898
F0.054545454545454543
sS'Robert Meersman'
p1899
F0.10000000000000001
sS'Yixin Chen'
p1900
F0.037617554858934171
sS'Vivek R. Narasayya'
p1901
F0.010625737898465172
sS'Jin Hyun Son'
p1902
F0.20000000000000001
sS'Benoit Huet'
p1903
F0.23809523809523808
sS'R. G. G. Cattell'
p1904
F0.17857142857142858
sS'Xiaomei Sun'
p1905
F0.12244897959183673
sS'Esben Hallundb\xc3\xa6k \xc3\x98stergaard'
p1906
F0.18181818181818182
sS'Randal V. Zoeller'
p1907
F0.23255813953488372
sS'Luo Si'
p1908
F0.0040160642570281121
sS'David Wingate'
p1909
F0.016216216216216217
sS'Jorge Gra\xc3\xb1a Gil'
p1910
F0.16666666666666666
sS'Akiko Kanaya'
p1911
F0.20408163265306123
sS'Ippokratis Pandis'
p1912
F0.17142857142857143
sS"William O'Connell"
p1913
F0.020283975659229209
sS'Farhad Hussain'
p1914
F0.13043478260869565
sS'Carlotta Domeniconi'
p1915
F0.022177419354838711
sS'Cris Pedregal Martin'
p1916
F0.21428571428571427
sS'Miron Livny'
p1917
F0.0026019080659150044
sS'B. John Oommen'
p1918
F0.094339622641509441
sS'Ismailcem Budak Arpinar'
p1919
F0.092592592592592587
sS'Show-Jane Yen'
p1920
F0.082191780821917804
sS'Anand Bhaskar'
p1921
F0.22641509433962265
sS'Christian Kleinerman'
p1922
F0.069767441860465115
sS'Pedro F. Felzenszwalb'
p1923
F0.074999999999999997
sS'Alexandros Labrinidis'
p1924
F0.02097902097902098
sS'Victor Vianu'
p1925
F0.018832391713747645
sS'Fr\xc3\xa9d\xc3\xa9rick Garcia'
p1926
F0.080000000000000002
sS'Scott Sanner'
p1927
F0.090909090909090912
sS'Xiang Lian'
p1928
F0.018808777429467086
sS'Carmelo Malta'
p1929
F0.23255813953488372
sS'Shiby Thomas'
p1930
F0.045801526717557252
sS'Aya Soffer'
p1931
F0.018633540372670808
sS'Jan Cech'
p1932
F0.10000000000000001
sS'George P. Copeland'
p1933
F0.10725552050473186
sS'Huanying Gu'
p1934
F0.2857142857142857
sS'Andrzej Wasowski'
p1935
F0.13043478260869565
sS'Nick Roussopoulos'
p1936
F0.011229646266142616
sS'Ivan Kovtun'
p1937
F0.14999999999999999
sS'Song Chun Zhu'
p1938
F0.021834061135371178
sS'Jiawan Chen'
p1939
F0.125
sS'Mihai Patrascu'
p1940
F0.10909090909090909
sS'Paul Baumstarck'
p1941
F0.26315789473684209
sS'Grzegorz Czajkowski'
p1942
F0.24615384615384617
sS'\xc3\x93scar Mart\xc3\xadnez Mozos'
p1943
F0.07575757575757576
sS'Shimon Whiteson'
p1944
F0.025316455696202531
sS'Peter Christen'
p1945
F0.021201413427561839
sS'Ulrich Pfeifer'
p1946
F0.075949367088607597
sS'Maria L. Barja'
p1947
F0.093457943925233641
sS'Kazuhiro Nakadai'
p1948
F0.096153846153846159
sS'Qing Liu'
p1949
F0.1797752808988764
sS'Jun-ichi Tsujii'
p1950
F0.043165467625899283
sS'Shiwei Tang'
p1951
F0.035502958579881658
sS'Tsuyoshi Kitani'
p1952
F0.10526315789473684
sS'Maitrayi Sabaratnam'
p1953
F0.12121212121212122
sS'James Elding'
p1954
F0.14634146341463414
sS'Kefeng Deng'
p1955
F0.29411764705882354
sS'Martin A. Fischler'
p1956
F0.028490028490028491
sS'Alfred G. Dale'
p1957
F0.03968253968253968
sS'Rafal Kustra'
p1958
F0.10344827586206896
sS'Marvin H. Solomon'
p1959
F0.15789473684210525
sS'Michael T. Checky'
p1960
F0.29411764705882354
sS'Dongmei Jia'
p1961
F0.13793103448275862
sS'Steve Chon'
p1962
F0.20689655172413793
sS'Richard R. Muntz'
p1963
F0.0092449922958397542
sS'Hermann Steffen'
p1964
F0.13333333333333333
sS'Yoram Gdalyahu'
p1965
F0.093457943925233641
sS'H. Chien'
p1966
F0.25641025641025639
sS'Raja Tanveer Iqbal'
p1967
F0.14634146341463414
sS'Toru Takaki'
p1968
F0.073170731707317069
sS'Kenil C. K. Cheng'
p1969
F0.11764705882352941
sS'Kun Liu'
p1970
F0.029556650246305417
sS'Laurent Dayn\xc3\xa8s'
p1971
F0.17777777777777778
sS'Karam Gouda'
p1972
F0.10526315789473684
sS'Thomas O. Binford'
p1973
F0.0625
sS'Wensi Xi'
p1974
F0.083102493074792241
sS'David J. Taylor'
p1975
F0.13636363636363635
sS'Qun Sun'
p1976
F0.14634146341463414
sS'Kai Yu'
p1977
F0.0067950169875424689
sS'Justin Zobel'
p1978
F0.007715387912558937
sS'Andrew Edie Johnson'
p1979
F0.2857142857142857
sS'Thomas Brinkhoff'
p1980
F0.052631578947368418
sS'Beno\xc3\xaet Dageville'
p1981
F0.028985507246376812
sS'Markku Tamminen'
p1982
F0.18181818181818182
sS'Toyotaro Suzumura'
p1983
F0.093023255813953487
sS'Arno Siebes'
p1984
F0.0088495575221238937
sS'Federico Heras'
p1985
F0.058823529411764705
sS'Hans-Peter Seidel'
p1986
F0.12345679012345678
sS'Alexander Shekhovtsov'
p1987
F0.09375
sS'Toon Calders'
p1988
F0.017910447761194031
sS'Shouichi Futamura'
p1989
F0.17142857142857143
sS'Yves Grandvalet'
p1990
F0.071428571428571425
sS'Hongjian Fan'
p1991
F0.040000000000000001
sS'Mokrane Bouzeghoub'
p1992
F0.12048192771084337
sS'Richard Schmidt'
p1993
F0.23255813953488372
sS'Bin Chen'
p1994
F0.013245033112582781
sS'Mark de Berg'
p1995
F0.125
sS'Ge Yu'
p1996
F0.048309178743961352
sS'Peter Buneman'
p1997
F0.02038216560509554
sS'Christian Leistner'
p1998
F0.20833333333333334
sS'Miguel Angel Garc\xc3\xada'
p1999
F0.1111111111111111
sS'Aliekber G\xc3\xbcrel'
p2000
F0.095238095238095233
sS'Georg Lausen'
p2001
F0.071729957805907171
sS'Simon J. Gibbs'
p2002
F0.12820512820512819
sS'Arvind Arasu'
p2003
F0.037151702786377708
sS'Rune Humborstad'
p2004
F0.090909090909090912
sS'Ada Wai-Chee Fu'
p2005
F0.035158891142663962
sS'Kuo-Yu Huang'
p2006
F0.053571428571428568
sS'Werner Dreyer'
p2007
F0.18518518518518517
sS'Antony L. Hosking'
p2008
F0.10169491525423729
sS'Frans Coetzee'
p2009
F0.044117647058823532
sS'Dan Olteanu'
p2010
F0.016042780748663103
sS'Daniel D. Corkill'
p2011
F0.019736842105263157
sS'Jacek Leszczylowski'
p2012
F0.20833333333333334
sS'Saydean Zeldin'
p2013
F0.16949152542372881
sS'Benyu Zhang'
p2014
F0.024205748865355523
sS'Ravi Krishnamurthy'
p2015
F0.0024509803921568627
sS'Qianying Tang'
p2016
F0.10344827586206896
sS'George Eadon'
p2017
F0.030303030303030304
sS'F. I. Smith'
p2018
F0.17142857142857143
sS'Robert P. Cook'
p2019
F0.13953488372093023
sS'Marco Emrich'
p2020
F0.32258064516129031
sS'Nikos Ntarmos'
p2021
F0.10526315789473684
sS'Kyoung-Mi Lee'
p2022
F0.14925373134328357
sS'Andreas Henrich'
p2023
F0.040899795501022497
sS'Michael Rys'
p2024
F0.02564102564102564
sS'Ulrich Kressel'
p2025
F0.22222222222222221
sS'Theoni Pitoura'
p2026
F0.047619047619047616
sS'Michael C. Burl'
p2027
F0.075187969924812026
sS'Hangzai Luo'
p2028
F0.073059360730593603
sS'Hua Yan'
p2029
F0.16216216216216217
sS'Fumihide Itho'
p2030
F0.21276595744680851
sS'Lun Zhang'
p2031
F0.23255813953488372
sS'Cheikh Talibouya Diop'
p2032
F0.13953488372093023
sS'Naoki Abe'
p2033
F0.0046153846153846158
sS'Kenji Abe'
p2034
F0.043165467625899283
sS'Hiroshi Mizoguchi'
p2035
F0.23255813953488372
sS'Harlan D. Harris'
p2036
F0.12
sS'Fausto Rabitti'
p2037
F0.023923444976076555
sS'Sang Kyun Cha'
p2038
F0.02564102564102564
sS'Krzysztof Koperski'
p2039
F0.029999999999999999
sS'John K. Debenham'
p2040
F0.099009900990099015
sS'Elham Fazli'
p2041
F0.17647058823529413
sS'Dmitri V. Kalashnikov'
p2042
F0.043668122270742356
sS'Dieter Roller'
p2043
F0.13333333333333333
sS'Wolfgang K\xc3\xa4fer'
p2044
F0.16286644951140064
sS'Wei Zhang'
p2045
F0.023419203747072601
sS'Michael Herscovici'
p2046
F0.068965517241379309
sS'Ulrich Herrmann'
p2047
F0.29411764705882354
sS'Valtteri Takala'
p2048
F0.27027027027027029
sS'Adnan Darwiche'
p2049
F0.0046403712296983757
sS'Wen Jin'
p2050
F0.013698630136986301
sS'Guy Bernard'
p2051
F0.32258064516129031
sS'Daniel L. Ong'
p2052
F0.30303030303030304
sS'Kirk Pruhs'
p2053
F0.068181818181818177
sS'Manlio Migliorati'
p2054
F0.21276595744680851
sS'Tobias Scheffer'
p2055
F0.0040160642570281121
sS'Soon Myoung Chung'
p2056
F0.10000000000000001
sS'Thierry Barsalou'
p2057
F0.15625
sS'Emma Brunskill'
p2058
F0.22727272727272727
sS'Ryan Huebsch'
p2059
F0.069364161849710976
sS'Calton Pu'
p2060
F0.019782393669634024
sS'Yann Chevaleyre'
p2061
F0.058252427184466021
sS'Dan Roth'
p2062
F0.0078400627205017642
sS'Michael J. Franklin'
p2063
F0.020094562647754138
sS'Jinqiang Han'
p2064
F0.14634146341463414
sS'Yk\xc3\xa4 Huhtala'
p2065
F0.12
sS'Clement H. C. Leung'
p2066
F0.14999999999999999
sS'Jaideep Srivastava'
p2067
F0.0041870202372644803
sS'Jacob Feldman'
p2068
F0.16666666666666666
sS'Jiawei Han'
p2069
F0.0057348190628289351
sS'Patrick H. Ngai'
p2070
F0.25
sS'Eun Kyo Park'
p2071
F0.17142857142857143
sS'Marc G. Smith'
p2072
F0.125
sS'Vishu Krishnamurthy'
p2073
F0.18867924528301888
sS'Robert Krovetz'
p2074
F0.020547945205479451
sS'Ning Zhang 0002'
p2075
F0.032432432432432434
sS'Dan Lin'
p2076
F0.18181818181818182
sS'Stanley B. Zdonik'
p2077
F0.012130801687763712
sS'Vincent Y. Lum'
p2078
F0.010600706713780919
sS'Henry E. Kyburg Jr.'
p2079
F0.14285714285714285
sS'Stefan Berchtold'
p2080
F0.0062434963579604576
sS'Shinichi Morishita'
p2081
F0.02368421052631579
sS'Aameek Singh'
p2082
F0.10169491525423729
sS'Olivier Gruber'
p2083
F0.25806451612903225
sS'Paul R. Cohen'
p2084
F0.0085836909871244635
sS'Tam\xc3\xa1s Horv\xc3\xa1th'
p2085
F0.046153846153846156
sS'Zhengzhu Feng'
p2086
F0.1875
sS'David Jensen'
p2087
F0.0057251908396946565
sS'Gen-ichiro Kinoshita'
p2088
F0.10526315789473684
sS'Stefan Trausan-Matu'
p2089
F0.18518518518518517
sS'Jiliang Wang'
p2090
F0.20000000000000001
sS'Jean-Daniel Boissonnat'
p2091
F0.10752688172043011
sS'Edward Rothberg'
p2092
F0.14285714285714285
sS'Jonathan D. Becher'
p2093
F0.089552238805970144
sS'Yunyue Zhu'
p2094
F0.0169971671388102
sS'Anders Torvill Bjorvand'
p2095
F0.15384615384615385
sS'Won-Young Kim'
p2096
F0.22448979591836735
sS'Surajit Chaudhuri'
p2097
F0.0035621317988765583
sS'Max Henrion'
p2098
F0.10909090909090909
sS'Kazumi Kubota'
p2099
F0.10810810810810811
sS'David Hung-Chang Du'
p2100
F0.16216216216216217
sS'Stanley R. M. Oliveira'
p2101
F0.13043478260869565
sS'Suh-Yin Lee'
p2102
F0.081081081081081086
sS'Jialie Shen'
p2103
F0.087912087912087919
sS'Jay Winkeler'
p2104
F0.25
sS'David R. Bull'
p2105
F0.23809523809523808
sS'Craig Harris'
p2106
F0.21276595744680851
sS'Masatoshi Okutomi'
p2107
F0.075949367088607597
sS'Janusz Marecki'
p2108
F0.048000000000000001
sS'Ruzena Bajcsy'
p2109
F0.068027210884353748
sS'Linda G. Shapiro'
p2110
F0.30303030303030304
sS'Nan Zhang 0004'
p2111
F0.035928143712574849
sS'Parthasarathy Ranganathan'
p2112
F0.20000000000000001
sS'Roberto J. Bayardo Jr.'
p2113
F0.02771362586605081
sS'Christopher Re'
p2114
F0.090225563909774431
sS'Paul A. Viola'
p2115
F0.022900763358778626
sS'Saharon Rosset'
p2116
F0.0056550424128180964
sS'Christopher Rasmussen'
p2117
F0.27027027027027029
sS'Nikolaus Steger'
p2118
F0.15789473684210525
sS'Werner Nutt'
p2119
F0.031545741324921134
sS'Anoop Singhal'
p2120
F0.042735042735042736
sS'Maurizio Panti'
p2121
F0.054054054054054057
sS'Junfeng Wang'
p2122
F0.11538461538461539
sS'S. V. N. Vishwanathan'
p2123
F0.028571428571428571
sS'Agenor Mafra-Neto'
p2124
F0.10909090909090909
sS'Hiromu Ishii'
p2125
F0.15789473684210525
sS'Richard Hedges'
p2126
F0.16216216216216217
sS'Florian Steinke'
p2127
F0.29411764705882354
sS'Howard J. Hamilton'
p2128
F0.030973451327433628
sS'Kun Gao'
p2129
F0.14634146341463414
sS'Elena Ratto'
p2130
F0.21276595744680851
sS'Bilge G\xc3\xbcnsel'
p2131
F0.22727272727272727
sS'Josephine M. Cheng'
p2132
F0.065217391304347824
sS'Stan Z. Li'
p2133
F0.042194092827004218
sS'Takeo Kanade'
p2134
F0.020761245674740483
sS'Ting Liu'
p2135
F0.041095890410958902
sS'Jos\xc3\xa9 R. Param\xc3\xa1'
p2136
F0.15189873417721519
sS'Jason Xin Zheng'
p2137
F0.14634146341463414
sS'Simon Kasif'
p2138
F0.026086956521739129
sS'J. Dreussi'
p2139
F0.15789473684210525
sS'Sharma Chakravarthy'
p2140
F0.024896265560165973
sS'Heiko Schuldt'
p2141
F0.025104602510460251
sS'Matthew Chang'
p2142
F0.15789473684210525
sS'Philip K. Chan'
p2143
F0.0066225165562913907
sS'Adele E. Howe'
p2144
F0.02564102564102564
sS'Ugo Montanari'
p2145
F0.17142857142857143
sS'Andreas Hutflesz'
p2146
F0.027777777777777776
sS'Yasushi Sakurai'
p2147
F0.017341040462427744
sS'Peer Kr\xc3\xb6ger'
p2148
F0.026056060007895777
sS'Laurent Mignet'
p2149
F0.037267080745341616
sS'Yahiko Kambayashi'
p2150
F0.023640661938534278
sS'Peter Widmayer'
p2151
F0.02607561929595828
sS'Andrei Arion'
p2152
F0.035714285714285712
sS'Piyush Goel'
p2153
F0.047619047619047616
sS'Dimitrios Georgakopoulos'
p2154
F0.033783783783783786
sS'Thomas H. Kunz'
p2155
F0.29411764705882354
sS'Arthur M. Keller'
p2156
F0.043010752688172046
sS'Sidney Fels'
p2157
F0.23809523809523808
sS'Osamu Segawa'
p2158
F0.20689655172413793
sS'Jean-Marc Petit'
p2159
F0.04195804195804196
sS'Axel Poign\xc3\xa9'
p2160
F0.10909090909090909
sS'David H. Taenzer'
p2161
F0.20000000000000001
sS'Sylvia L. Osborn'
p2162
F0.14705882352941177
sS'Steve Ford'
p2163
F0.26315789473684209
sS'Emily B. Fox'
p2164
F0.22222222222222221
sS'Srinivas R. Kashyap'
p2165
F0.12121212121212122
sS'Thanasis Hadzilacos'
p2166
F0.064935064935064929
sS'William D. Roome'
p2167
F0.27027027027027029
sS'Josep M. Pujol'
p2168
F0.16666666666666666
sS'Claudio Sartori'
p2169
F0.13636363636363635
sS'James Geller'
p2170
F0.12048192771084337
sS'Giorgio Montini'
p2171
F0.11320754716981132
sS'Uwe R\xc3\xb6hm'
p2172
F0.042194092827004218
sS'Paul D. Scott'
p2173
F0.023904382470119521
sS'Peter M. Fischer'
p2174
F0.042253521126760563
sS'Min-Soo Kim 0002'
p2175
F0.045801526717557252
sS'Dipayan Gangopadhyay'
p2176
F0.16393442622950818
sS'Subhashis Banerjee'
p2177
F0.17241379310344829
sS'S. Seshadri'
p2178
F0.061855670103092786
sS'Geoffrey E. Hinton'
p2179
F0.02557544757033248
sS'Fatma Ozcan'
p2180
F0.05434782608695652
sS'Reiko Ito'
p2181
F0.12244897959183673
sS'Botao Wang'
p2182
F0.10619469026548672
sS'Stephan Timmer'
p2183
F0.1111111111111111
sS'Thorsten Joachims'
p2184
F0.0034843205574912892
sS'Arno J. Knobbe'
p2185
F0.020408163265306121
sS'Edleno Silva de Moura'
p2186
F0.02
sS'Xiaolei Qian'
p2187
F0.0625
sS'Genevi\xc3\xa9ve Morgue'
p2188
F0.14999999999999999
sS'Octavia I. Camps'
p2189
F0.14150943396226415
sS'Madirakshi Das'
p2190
F0.23255813953488372
sS'Mafruz Zaman Ashrafi'
p2191
F0.11764705882352941
sS'Wolfgang Wilkes'
p2192
F0.097087378640776698
sS'E. Sithirasenan'
p2193
F0.11538461538461539
sS'Matthew Huras'
p2194
F0.07792207792207792
sS'Jianna Zhang'
p2195
F0.06097560975609756
sS'Stavros Christodoulakis'
p2196
F0.013245033112582781
sS'Minsu Cho'
p2197
F0.21739130434782608
sS'Nicol\xc3\xa1s Am\xc3\xa9zquita G\xc3\xb3mez'
p2198
F0.27027027027027029
sS'Jim Gray'
p2199
F0.0061475409836065573
sS'Paulo Braz Golgher'
p2200
F0.037499999999999999
sS'Geoffrey S. Knauth'
p2201
F0.125
sS'Rainer Unland'
p2202
F0.046296296296296294
sS'Annrai OToole'
p2203
F0.24390243902439024
sS'Hongjun Zhu'
p2204
F0.14492753623188406
sS'Wei Zhao'
p2205
F0.035928143712574849
sS'Tapio Elomaa'
p2206
F0.01282051282051282
sS'Takuya Maekawa'
p2207
F0.10526315789473684
sS'Zhimin Chen'
p2208
F0.15789473684210525
sS'Kaushik Chakrabarti'
p2209
F0.055555555555555552
sS'Mei Han'
p2210
F0.12048192771084337
sS'Andrei Z. Broder'
p2211
F0.040472175379426642
sS'Samuel Audet'
p2212
F0.23255813953488372
sS'ChengXiang Zhai'
p2213
F0.0012360939431396785
sS'Prasan Roy'
p2214
F0.02802547770700637
sS'Tian Xia'
p2215
F0.018927444794952682
sS'Matthias Renz'
p2216
F0.028037383177570093
sS'David J. Crandall'
p2217
F0.17857142857142858
sS'Julio C. L\xc3\xb3pez'
p2218
F0.17647058823529413
sS'Jan Prins'
p2219
F0.029268292682926831
sS'Mingsheng Hong'
p2220
F0.088888888888888892
sS'Jeffrey S. Rosenschein'
p2221
F0.012838801711840228
sS'Haifeng Jiang'
p2222
F0.053097345132743362
sS'Ronald Morrison'
p2223
F0.082191780821917804
sS'Eyal Oren'
p2224
F0.14705882352941177
sS'Frank Neven'
p2225
F0.0065934065934065934
sS'Ramesh Govindan'
p2226
F0.12244897959183673
sS'Dong Zhou'
p2227
F0.2857142857142857
sS'Megumi Saito'
p2228
F0.23809523809523808
sS'Thomas Bittner'
p2229
F0.17857142857142858
sS'Son H. Nguyen'
p2230
F0.17142857142857143
sS'Vram Kouramajian'
p2231
F0.056179775280898875
sS'D. Abderrahmane'
p2232
F0.17647058823529413
sS'Kai Li'
p2233
F0.039473684210526314
sS'Rita C. Summers'
p2234
F0.089552238805970144
sS'Gareth J. F. Jones'
p2235
F0.017857142857142856
sS'Frank B. Schmuck'
p2236
F0.14999999999999999
sS'Peter Haase'
p2237
F0.056603773584905662
sS'Christoph Mangold'
p2238
F0.04878048780487805
sS'Stefano Lodi'
p2239
F0.12631578947368421
sS'Hui-I Hsiao'
p2240
F0.024590163934426229
sS'Yang-Sae Moon'
p2241
F0.023255813953488372
sS'Javier B\xc3\xa9jar'
p2242
F0.10344827586206896
sS'Mahendra Sekaran'
p2243
F0.10000000000000001
sS'Shiyuan Wang'
p2244
F0.14999999999999999
sS'Chandra Kambhamettu'
p2245
F0.011560693641618497
sS'Yutaka Yanagisawa'
p2246
F0.13157894736842105
sS'David Nist\xc3\xa9r'
p2247
F0.035502958579881658
sS'Nicolas Maudet'
p2248
F0.057142857142857141
sS'Ulrike Sattler'
p2249
F0.017667844522968199
sS'Boon Chin Chua'
p2250
F0.14634146341463414
sS'Gilles Barbedette'
p2251
F0.53333333333333333
sS'Takeaki Uno'
p2252
F0.041095890410958902
sS'Lars Schmidt-Thieme'
p2253
F0.028328611898016998
sS'J\xc3\xbcrgen G\xc3\xbcnauer'
p2254
F0.071428571428571425
sS'Nurith Gal-Oz'
p2255
F0.20408163265306123
sS'Fabian M. Suchanek'
p2256
F0.022388059701492536
sS'John L. Smith'
p2257
F0.24390243902439024
sS'Ajit A. Diwan'
p2258
F0.09375
sS'Emma Rollon'
p2259
F0.34482758620689657
sS'Marc Najork'
p2260
F0.043956043956043959
sS'Gene Cooperman'
p2261
F0.15789473684210525
sS'Caroline Pantofaru'
p2262
F0.16666666666666666
sS'Kunihiko Kaneko'
p2263
F0.16666666666666666
sS'Nedeljko Cvejic'
p2264
F0.23809523809523808
sS'Roxana Geambasu'
p2265
F0.11881188118811881
sS'Suzanne M. Sharrock'
p2266
F0.12244897959183673
sS'Philip S. Yu'
p2267
F0.0038373781373159097
sS'Frederick H. Lochovsky'
p2268
F0.017211703958691909
sS'Debabrata Dash'
p2269
F0.12244897959183673
sS'Eric C. Jensen'
p2270
F0.011952191235059761
sS'Jeff L. Edwards'
p2271
F0.23809523809523808
sS'Yaad Blum'
p2272
F0.14634146341463414
sS'Douglas Demyen'
p2273
F0.20689655172413793
sS'Mark T. Keane'
p2274
F0.045801526717557252
sS'Yves Deville'
p2275
F0.064516129032258063
sS'Patrick P\xc3\xa9rez'
p2276
F0.15384615384615385
sS'Francisco J. Ribadas'
p2277
F0.16666666666666666
sS'Alexandros Nanopoulos'
p2278
F0.068181818181818177
sS'Min Guo'
p2279
F0.25641025641025639
sS'R. L. Cromwell'
p2280
F0.20408163265306123
sS'Rohan A. Baxter'
p2281
F0.044117647058823532
sS'Zhaohui Peng'
p2282
F0.17647058823529413
sS'Ching-Tien Ho'
p2283
F0.046511627906976744
sS'Adrian R. Pearce'
p2284
F0.076923076923076927
sS'J\xc3\xb6rg Sander'
p2285
F0.010538641686182669
sS'Arturo Crespo'
p2286
F0.17142857142857143
sS'Jim Bosch'
p2287
F0.26315789473684209
sS'Alfons Kemper'
p2288
F0.038016038016038013
sS'Yannis Theodoridis'
p2289
F0.025682182985553772
sS'Don S. Batory'
p2290
F0.098039215686274508
sS'Ioana Manolescu'
p2291
F0.0096463022508038593
sS'Vipin Swarup'
p2292
F0.22222222222222221
sS'David Slater'
p2293
F0.10869565217391304
sS'Rudolph Triebel'
p2294
F0.099009900990099015
sS'Demetri Terzopoulos'
p2295
F0.078817733990147784
sS'Charles L. A. Clarke'
p2296
F0.0020604395604395605
sS'Fang Wei'
p2297
F0.050209205020920501
sS'Hedi Harzallah'
p2298
F0.14285714285714285
sS'Bin Jiang'
p2299
F0.071428571428571425
sS'Abdul Sattar'
p2300
F0.017241379310344827
sS'Leonid Libkin'
p2301
F0.0064683053040103496
sS'Kevin W. Bowyer'
p2302
F0.056980056980056981
sS'Graham N. C. Kirby'
p2303
F0.1276595744680851
sS'Berthier A. Ribeiro-Neto'
p2304
F0.019590382902938557
sS'Alexander Kovarsky'
p2305
F0.125
sS'Kia Makki'
p2306
F0.12
sS'Chee Yong Chan'
p2307
F0.029605263157894735
sS'Jia Wang'
p2308
F0.20000000000000001
sS'Michael Fink 0002'
p2309
F0.22222222222222221
sS'David C. Parkes'
p2310
F0.011695906432748537
sS'Nathan S. Netanyahu'
p2311
F0.057692307692307696
sS'Rajiv T. Maheswaran'
p2312
F0.063157894736842107
sS'Jun-Yi Shen'
p2313
F0.084507042253521125
sS'Roger Mohr'
p2314
F0.22727272727272727
sS'Xiaochun Yang'
p2315
F0.022900763358778626
sS'Sukho Lee'
p2316
F0.13986013986013987
sS'Lukas Relly'
p2317
F0.29411764705882354
sS'Christian S. Jensen'
p2318
F0.044044044044044044
sS'Akshay Goel'
p2319
F0.11320754716981132
sS'Umesh Maheshwari'
p2320
F0.45454545454545453
sS'Sandeep Prakash'
p2321
F0.13953488372093023
sS'Shaya Potter'
p2322
F0.1875
sS'Viviane Crestana-Taube'
p2323
F0.22222222222222221
sS'Stavros Harizopoulos'
p2324
F0.057416267942583733
sS'Michael Mertikas'
p2325
F0.22222222222222221
sS'Berthold Reinwald'
p2326
F0.033707865168539325
sS'Vincent Oria'
p2327
F0.11904761904761904
sS'Samuel Burer'
p2328
F0.14285714285714285
sS'Malcolm P. Atkinson'
p2329
F0.1437908496732026
sS'Mitsunori Ogihara'
p2330
F0.011385199240986717
sS'Nicolas Loeff'
p2331
F0.2318840579710145
sS'Reid G. Smith'
p2332
F0.041152263374485597
sS'Shumeet Baluja'
p2333
F0.017595307917888565
sS'Dominique Pastre'
p2334
F0.20833333333333334
sS'James Chen'
p2335
F0.12244897959183673
sS'Ralf Schneider'
p2336
F0.12716763005780346
sS'David Johnson'
p2337
F0.20000000000000001
sS'Susan J. Eggers'
p2338
F0.092307692307692313
sS'Tobias Sch\xc3\xa4fer'
p2339
F0.1276595744680851
sS"Noel E. O'Connor"
p2340
F0.16666666666666666
sS'Alon Y. Halevy'
p2341
F0.0064239828693790149
sS'Zolt\xc3\xa1n Szamonek'
p2342
F0.098360655737704916
sS'B\xc3\xa9atrice Finance'
p2343
F0.090909090909090912
sS'Stefan Manegold'
p2344
F0.019801980198019802
sS'Shian Fernando'
p2345
F0.26315789473684209
sS'David H. D. Warren'
p2346
F0.090909090909090912
sS'Jayant Madhavan'
p2347
F0.025316455696202531
sS'Koki Kato'
p2348
F0.10000000000000001
sS'Clarence A. Ellis'
p2349
F0.11235955056179775
sS'Marcin Marszalek'
p2350
F0.30303030303030304
sS'Michael V. Mannino'
p2351
F0.15625
sS'Sridhar Ramaswamy'
p2352
F0.014527845036319613
sS'Hiroaki Kitano'
p2353
F0.0077579519006982156
sS'Sushil Jajodia'
p2354
F0.0068807339449541288
sS'Guangyi Bai'
p2355
F0.16666666666666666
sS'Esteban Meneses'
p2356
F0.27777777777777779
sS'Zheng Shao'
p2357
F0.04195804195804196
sS'Isabel F. Cruz'
p2358
F0.065789473684210523
sS'Emine Yilmaz'
p2359
F0.01276595744680851
sS'Radim S\xc3\xa1ra'
p2360
F0.085714285714285715
sS'Yee Whye Teh'
p2361
F0.061728395061728392
sS'Ismail H. Toroslu'
p2362
F0.13636363636363635
sS'Alex Alves Freitas'
p2363
F0.083601286173633438
sS'Songting Chen'
p2364
F0.0085227272727272721
sS'Mark L. McAuliffe'
p2365
F0.19047619047619047
sS'Sanjiv Behl'
p2366
F0.17142857142857143
sS'Soraya Abad'
p2367
F0.27906976744186046
sS'James Wu'
p2368
F0.23809523809523808
sS'Ryszard S. Michalski'
p2369
F0.034246575342465752
sS'Ra\xc3\xbal Palma'
p2370
F0.20689655172413793
sS'Soumya Ray'
p2371
F0.013574660633484163
sS'Gail M. Shaw'
p2372
F0.27777777777777779
sS'Claudia Bauzer Medeiros'
p2373
F0.084745762711864403
sS'Byron Boots'
p2374
F0.13953488372093023
sS'Russell Greiner'
p2375
F0.015364916773367477
sS'Ben Kao'
p2376
F0.026151930261519303
sS'Minghong Zhou'
p2377
F0.080000000000000002
sS'Steve Hanks'
p2378
F0.036585365853658534
sS'Ashish Goel'
p2379
F0.086956521739130432
sS'Pascal Fua'
p2380
F0.029585798816568046
sS'S. Viswanathan'
p2381
F0.22641509433962265
sS'Wenyan Hu'
p2382
F0.21428571428571427
sS'Scott Fortin'
p2383
F0.23809523809523808
sS'Laurynas Biveinis'
p2384
F0.13333333333333333
sS'Marcel Worring'
p2385
F0.2857142857142857
sS'Yan Zhao'
p2386
F0.034482758620689655
sS'V. Jones'
p2387
F0.25641025641025639
sS"Joseph O'Rourke"
p2388
F0.12658227848101267
sS'M. Galibourg'
p2389
F0.22222222222222221
sS'Vadim Pisarevsky'
p2390
F0.15384615384615385
sS'Dennis Heimbigner'
p2391
F0.22727272727272727
sS'Baoying Wang'
p2392
F0.084507042253521125
sS'Zhenzhen Kou'
p2393
F0.12244897959183673
sS'Antonio D. Chiaravalloti'
p2394
F0.20000000000000001
sS'Raghav Kaushik'
p2395
F0.014754098360655738
sS'Stefan Decker'
p2396
F0.035587188612099648
sS'John F. Lemmer'
p2397
F0.09375
sS'Kivanc Sabirli'
p2398
F0.29999999999999999
sS'Laurent Vieille'
p2399
F0.15873015873015872
sS'Masashi Yamamuro'
p2400
F0.09375
sS'Sami Romdhani'
p2401
F0.14925373134328357
sS'Ratko Orlandic'
p2402
F0.13664596273291926
sS'Eric Mays'
p2403
F0.029556650246305417
sS'Dana H. Ballard'
p2404
F0.02967359050445104
sS'Debapriyo Majumdar'
p2405
F0.055555555555555552
sS'J. S. Marron'
p2406
F0.27777777777777779
sS'Shiyan Deng'
p2407
F0.14999999999999999
sS'Yasushi Ogawa'
p2408
F0.022641509433962263
sS'Jo-Anne Kirton'
p2409
F0.15384615384615385
sS'Liang Huai Yang'
p2410
F0.074534161490683232
sS'Yiming Yang'
p2411
F0.0031201248049921998
sS'Donghui Zhang'
p2412
F0.065244667503136761
sS'Brian A. Haugh'
p2413
F0.075949367088607597
sS'Young-Gook Ra'
p2414
F0.16260162601626016
sS'Tao Li'
p2415
F0.0015927794000530925
sS'Hui Yang'
p2416
F0.03937007874015748
sS'Chandrasekhar Srinivasan'
p2417
F0.29411764705882354
sS'Chabane Oussalah'
p2418
F0.29999999999999999
sS'David Liu'
p2419
F0.25641025641025639
sS'Daniel Gruhl'
p2420
F0.032608695652173912
sS'Zheng Chen'
p2421
F0.010362694300518135
sS'Jack A. Orenstein'
p2422
F0.081466395112016296
sS'Nesime Tatbul'
p2423
F0.013761467889908258
sS'Leonard McMillan'
p2424
F0.058139534883720929
sS'Congjun Yang'
p2425
F0.12244897959183673
sS'Lap-Kei Lee'
p2426
F0.15789473684210525
sS'Sanghyun Park'
p2427
F0.014002333722287048
sS'Kurt D. Bollacker'
p2428
F0.044117647058823532
sS'Tengjiao Wang'
p2429
F0.056074766355140186
sS'Bennet Vance'
p2430
F0.10752688172043011
sS'Jian Chih Ou'
p2431
F0.090909090909090912
sS'Guangyou Xu'
p2432
F0.076335877862595422
sS'Aaron Watters'
p2433
F0.12195121951219512
sS'Jonathan P. Pearce'
p2434
F0.021352313167259787
sS'Satoshi Oyama'
p2435
F0.11235955056179775
sS'Alejandro P. Buchmann'
p2436
F0.022831050228310501
sS'Chen Li'
p2437
F0.023351648351648352
sS'Edwin R. Hancock'
p2438
F0.05730659025787966
sS'Terrance Swift'
p2439
F0.1111111111111111
sS'Marco P\xc3\xb6tke'
p2440
F0.15686274509803921
sS'Markus Weber'
p2441
F0.27027027027027029
sS'Henry Kanoui'
p2442
F0.16129032258064516
sS'Svein-Olaf Hvasshovd'
p2443
F0.037383177570093455
sS'Theodore Johnson'
p2444
F0.0087463556851311956
sS'Kishore Bubna'
p2445
F0.16949152542372881
sS'G. Jack Lipovski'
p2446
F0.063829787234042548
sS'Li Wei'
p2447
F0.017341040462427744
sS'Rajendra Yavatkar'
p2448
F0.21276595744680851
sS'Sandra Heiler'
p2449
F0.074626865671641784
sS'Holger Meuss'
p2450
F0.075949367088607597
sS'M. F. Colinas'
p2451
F0.29411764705882354
sS'Egidio P. Giachin'
p2452
F0.096774193548387094
sS'Milind Tambe'
p2453
F0.019088016967126194
sS'Torsten Grust'
p2454
F0.0169971671388102
sS'Tassos Argyros'
p2455
F0.10526315789473684
sS'Miyuki Nakano'
p2456
F0.028985507246376812
sS'Michael Jaedicke'
p2457
F0.11363636363636363
sS'Mahathi S. Mahabhashyam'
p2458
F0.15384615384615385
sS'Christian Breiteneder'
p2459
F0.21276595744680851
sS'Vijay V. Raghavan'
p2460
F0.0098135426889106973
sS'Arindam Banerjee'
p2461
F0.011160714285714286
sS'Hiroshi Kashiwagi'
p2462
F0.23809523809523808
sS'Marie-Christine Rousset'
p2463
F0.037735849056603772
sS'Yolanda Gil'
p2464
F0.021052631578947368
sS'Eric Sedlar'
p2465
F0.085714285714285715
sS'Stuart J. Russell'
p2466
F0.033412887828162291
sS'A. M. Alashqur'
p2467
F0.21978021978021978
sS'Bernhard Zeller'
p2468
F0.061855670103092786
sS'Ihab F. Ilyas'
p2469
F0.004261363636363636
sS'Heather Cody Hazlett'
p2470
F0.27777777777777779
sS'Tie Liu'
p2471
F0.30303030303030304
sS'Robert T. Collins'
p2472
F0.078125
sS'William Josephson'
p2473
F0.13333333333333333
sS'Fei Xing'
p2474
F0.24390243902439024
sS'Foto N. Afrati'
p2475
F0.0091463414634146336
sS'Michael Greenwald'
p2476
F0.061855670103092786
sS'Am\xc3\xadlcar Sernadas'
p2477
F0.26315789473684209
sS'Apurva Kumar'
p2478
F0.065934065934065936
sS'Alon Y. Levy'
p2479
F0.0064386317907444666
sS'Srikanta Tirthapura'
p2480
F0.043795620437956206
sS'B. Prabhakaran'
p2481
F0.10344827586206896
sS'Zachary G. Ives'
p2482
F0.032085561497326207
sS'Anguel Novoselsky'
p2483
F0.14999999999999999
sS'Qihong Shao'
p2484
F0.13636363636363635
sS'Shiori Betzler'
p2485
F0.17647058823529413
sS'Jimena Llopis'
p2486
F0.17647058823529413
sS'Jian Yang'
p2487
F0.11267605633802817
sS'Avinash C. Kak'
p2488
F0.11494252873563218
sS'Ray Thomas'
p2489
F0.16666666666666666
sS'Gilad Zlotkin'
p2490
F0.025974025974025976
sS'Hezhi Ai'
p2491
F0.31372549019607843
sS'Serge Rielau'
p2492
F0.10204081632653061
sS'Bryon K. Ehlmann'
p2493
F0.19230769230769232
sS'Setsuo Arikawa'
p2494
F0.031914893617021274
sS'Leonardo Carbonara'
p2495
F0.10909090909090909
sS'Timothy Edmunds'
p2496
F0.125
sS'Gang Luo'
p2497
F0.0083798882681564244
sS'Mohand Sa\xc3\xafd Allili'
p2498
F0.18181818181818182
sS'Panagiotis G. Ipeirotis'
p2499
F0.01675041876046901
sS'Alexander Borgida'
p2500
F0.026359143327841845
sS'Vladimir Cherkassky'
p2501
F0.0625
sS'Kristen Grauman'
p2502
F0.063829787234042548
sS'Wang-Chien Lee'
p2503
F0.012895662368112544
sS'Bruno Gusm\xc3\xa3o Rocha'
p2504
F0.125
sS'Elizabeth Allen'
p2505
F0.19607843137254902
sS'Andrea S. LaPaugh'
p2506
F0.090090090090090086
sS'Shailesh Agrawal'
p2507
F0.31372549019607843
sS'Boon Thau Loo'
p2508
F0.037735849056603772
sS'Eugene J. Shekita'
p2509
F0.042933810375670838
sS'Xiaoxin Yin'
p2510
F0.08615384615384615
sS'Hiroomi Imai'
p2511
F0.084507042253521125
sS'Donald B. Faatz'
p2512
F0.26666666666666666
sS'Dragi Kocev'
p2513
F0.32258064516129031
sS'Mukesh K. Mohania'
p2514
F0.049713193116634802
sS'Yoram Bachrach'
p2515
F0.059999999999999998
sS'Stefan Saroiu'
p2516
F0.17647058823529413
sS'Rick Kjeldsen'
p2517
F0.19230769230769232
sS'Sudipto Guha'
p2518
F0.014519056261343012
sS'Nathanael Chambers'
p2519
F0.20833333333333334
sS'David Canfield Smith'
p2520
F0.1111111111111111
sS'Radu Horaud'
p2521
F0.11235955056179775
sS'Norman Y. Foo'
p2522
F0.016348773841961851
sS'C. K. Tan'
p2523
F0.17142857142857143
sS'Hartmut Liefke'
p2524
F0.25
sS'Derek Hoiem'
p2525
F0.25641025641025639
sS'Vijay M. Sarathy'
p2526
F0.19607843137254902
sS'Angelika Reiser'
p2527
F0.065217391304347824
sS'Shipeng Yu'
p2528
F0.013761467889908258
sS'Roger Bamford'
p2529
F0.056603773584905662
sS'Douglas K. Barry'
p2530
F0.18518518518518517
sS'Bradley Sauder'
p2531
F0.12
sS'Gary R. Bradski'
p2532
F0.14492753623188406
sS'Y. Dora Cai'
p2533
F0.14634146341463414
sS'Thomas S. Huang'
p2534
F0.013123359580052493
sS'Andrew Foss'
p2535
F0.055555555555555552
sS'Thomas Chehire'
p2536
F0.14999999999999999
sS'Ilker Altintas'
p2537
F0.35714285714285715
sS'Martin Riedmiller'
p2538
F0.12820512820512819
sS'William E. Walsh'
p2539
F0.01834862385321101
sS'Jianzhuang Liu'
p2540
F0.052910052910052907
sS'Haym Hirsh'
p2541
F0.0073800738007380072
sS'Lin Liao'
p2542
F0.071428571428571425
sS'Wei Li'
p2543
F0.028708133971291867
sS'Alexandru Coman'
p2544
F0.12244897959183673
sS'Nanning Zheng'
p2545
F0.19607843137254902
sS'Haoliang Jiang'
p2546
F0.1875
sS'Millist W. Vincent'
p2547
F0.23255813953488372
sS'Ingo Mierswa'
p2548
F0.04195804195804196
sS'Andrey Balmin'
p2549
F0.009852216748768473
sS'Suk-Chung Yoon'
p2550
F0.11363636363636363
sS'Inderpal Narang'
p2551
F0.026277372262773723
sS'Frank Wm. Tompa'
p2552
F0.059999999999999998
sS'Alex Rogers'
p2553
F0.060606060606060608
sS'Luis Basa\xc3\xb1ez'
p2554
F0.1111111111111111
sS'Hidehiko Tanaka'
p2555
F0.040268456375838924
sS'Patrick Valduriez'
p2556
F0.030201342281879196
sS'A. E. Lang'
p2557
F0.15384615384615385
sS'Xiang Peng'
p2558
F0.072289156626506021
sS'Gang Liang'
p2559
F0.21276595744680851
sS'Erik Meijer'
p2560
F0.25641025641025639
sS'Bolin Ding'
p2561
F0.058823529411764705
sS'Serhan Dagtas'
p2562
F0.22727272727272727
sS'Manjeet Rege'
p2563
F0.04195804195804196
sS'Bhaskara Marthi'
p2564
F0.14084507042253522
sS'Jeffrey F. Naughton'
p2565
F0.0073800738007380072
sS'Timoth\xc3\xa9e Cour'
p2566
F0.24390243902439024
sS'Milenko Petrovic'
p2567
F0.10526315789473684
sS'V\xc3\xa9ronique Benzaken'
p2568
F0.071428571428571425
sS'Chang-Shing Perng'
p2569
F0.022988505747126436
sS'Dominique Fournier'
p2570
F0.26315789473684209
sS'Peter Scheuermann'
p2571
F0.0056980056980056983
sS'Alan Borning'
p2572
F0.090909090909090912
sS'Di Zhang'
p2573
F0.10714285714285714
sS'Michael Schrefl'
p2574
F0.093457943925233641
sS'Paolo Torroni'
p2575
F0.1276595744680851
sS'Phillip B. Gibbons'
p2576
F0.0038022813688212928
sS'Rauf Izmailov'
p2577
F0.13636363636363635
sS'Wensheng Wu'
p2578
F0.033802816901408447
sS'Wai Tak Theodora Yeung'
p2579
F0.17647058823529413
sS'Hao-Ping Hung'
p2580
F0.14285714285714285
sS'Bj\xc3\xb6rn Blohsfeld'
p2581
F0.068965517241379309
sS'Malik Ghallab'
p2582
F0.07407407407407407
sS'Zhenqiang Tan'
p2583
F0.29411764705882354
sS'Abdul Rauf Baig'
p2584
F0.12244897959183673
sS'Joseph Modayil'
p2585
F0.22727272727272727
sS'Francesc Serratosa'
p2586
F0.27027027027027029
sS'Mehmet Kaya'
p2587
F0.09569377990430622
sS'Katsumi Tanaka'
p2588
F0.044776119402985072
sS'Tim Oates'
p2589
F0.016064257028112448
sS'Zhiwei Li'
p2590
F0.059523809523809521
sS'Josef Kittler'
p2591
F0.042857142857142858
sS'Carlos Castillo'
p2592
F0.020338983050847456
sS'Eljas Soisalon-Soininen'
p2593
F0.035010940919037198
sS'Tolga Yurek'
p2594
F0.21428571428571427
sS'Fengli Zhang'
p2595
F0.19230769230769232
sS'Michael J. Brooks'
p2596
F0.068181818181818177
sS'Yue Pan'
p2597
F0.049792531120331947
sS'Rachel Ben-Eliyahu-Zohary'
p2598
F0.10526315789473684
sS'Andy M. Yip'
p2599
F0.03896103896103896
sS'Val Tannen'
p2600
F0.026666666666666668
sS'Marsha C. Lovett'
p2601
F0.18181818181818182
sS'Damien K. Fisher'
p2602
F0.10714285714285714
sS'Robert B. Allen'
p2603
F0.057692307692307696
sS'Philipp Kranen'
p2604
F0.13333333333333333
sS'Ingrid Wetzel'
p2605
F0.22222222222222221
sS'Manuel Vilares Ferro'
p2606
F0.16666666666666666
sS'Kiyoko F. Aoki-Kinoshita'
p2607
F0.16438356164383561
sS'Dana S. Nau'
p2608
F0.0043165467625899279
sS'Donald Kossmann'
p2609
F0.012664393570384803
sS'Yehoshua Sagiv'
p2610
F0.012230447376890892
sS'Andra Marynowski'
p2611
F0.20408163265306123
sS"Marc'Aurelio Ranzato"
p2612
F0.13513513513513514
sS'Ying Zhang'
p2613
F0.024242424242424242
sS'Jutta G\xc3\xb6ers'
p2614
F0.23255813953488372
sS'Masaru Tomita'
p2615
F0.053097345132743362
sS'Andreas Broschart'
p2616
F0.071428571428571425
sS'Hong Lu'
p2617
F0.16393442622950818
sS'Yashushi Sakurai'
p2618
F0.19354838709677419
sS'M. Erdem Kurul'
p2619
F0.06741573033707865
sS'Nikos Anerousis'
p2620
F0.19354838709677419
sS'Chung-Wen Cho'
p2621
F0.17142857142857143
sS'Ricardo de Oliveira Anido'
p2622
F0.2857142857142857
sS'Arun Qamra'
p2623
F0.12244897959183673
sS'Jing Sun'
p2624
F0.27777777777777779
sS'Jared L. Darlington'
p2625
F0.083333333333333329
sS'Xiaogang Li'
p2626
F0.17647058823529413
sS'Hanli Wang'
p2627
F0.16393442622950818
sS'Philippe Pucheral'
p2628
F0.059999999999999998
sS'Stephen Johnson'
p2629
F0.16216216216216217
sS'Catherine Hamon'
p2630
F0.14492753623188406
sS'Ioannis Fudos'
p2631
F0.10000000000000001
sS'Anselm Spoerri'
p2632
F0.092307692307692313
sS'Ashwin Machanavajjhala'
p2633
F0.083916083916083919
sS'Tirthankar Lahiri'
p2634
F0.046153846153846156
sS'Luca Becchetti'
p2635
F0.076923076923076927
sS'David J. Harper'
p2636
F0.022684310018903593
sS'Hang Li'
p2637
F0.0097465886939571145
sS'Thomas Baby'
p2638
F0.10526315789473684
sS'Eric W. Brown'
p2639
F0.071895424836601302
sS'R\xc3\xb3n\xc3\xa1n Mac Ruairi'
p2640
F0.14285714285714285
sS'Monique V. Vieira'
p2641
F0.11538461538461539
sS'Haixun Wang'
p2642
F0.010597302504816955
sS'Riccardo Torlone'
p2643
F0.016
sS'Shingo Kagami'
p2644
F0.16393442622950818
sS'Sanjeev Khanna'
p2645
F0.032085561497326207
sS'Abraham Silberschatz'
p2646
F0.011494252873563218
sS'Dik Lun Lee'
p2647
F0.024748646558391339
sS'Staffan Flodin'
p2648
F0.20408163265306123
sS'Antonio Robles-Kelly'
p2649
F0.16666666666666666
sS'Nina Tayar'
p2650
F0.16216216216216217
sS'Jun Zhang'
p2651
F0.039215686274509803
sS'Xiaocong Fan'
p2652
F0.07407407407407407
sS'Hsiao-Ping Tsai'
p2653
F0.19230769230769232
sS'Karl Aberer'
p2654
F0.027777777777777776
sS'Liva Ralaivola'
p2655
F0.12244897959183673
sS'Matthew P. Evett'
p2656
F0.059405940594059403
sS'Ralf Schenkel'
p2657
F0.032327586206896554
sS'Janice I. Glasgow'
p2658
F0.05128205128205128
sS'V. S. Subrahmanian'
p2659
F0.0072904009720534627
sS'Ravi Kumar'
p2660
F0.015065913370998116
sS'Renato O. Stehling'
p2661
F0.125
sS'Hai Wang'
p2662
F0.050000000000000003
sS'Guoliang Li'
p2663
F0.013215859030837005
sS'Chiang Lee'
p2664
F0.036585365853658534
sS'Carsten Andreas Gerlhof'
p2665
F0.17543859649122806
sS'Bruno Mermet'
p2666
F0.26315789473684209
sS'Sashikanth Chandrasekaran'
p2667
F0.16901408450704225
sS'Young Francis Day'
p2668
F0.27027027027027029
sS'Dong Xin'
p2669
F0.018981880931837791
sS'Bicheng Liu'
p2670
F0.10344827586206896
sS'Alexandre V. Evfimievski'
p2671
F0.066666666666666666
sS'Ahmed K. Elmagarmid'
p2672
F0.012430939226519336
sS'Stephen Blott'
p2673
F0.057471264367816091
sS'Ratul Mahajan'
p2674
F0.15789473684210525
sS'Houtan Shirani-Mehr'
p2675
F0.21276595744680851
sS'Volker Blanz'
p2676
F0.29411764705882354
sS'Mao Chen'
p2677
F0.090090090090090086
sS'Yongqiao Xiao'
p2678
F0.10169491525423729
sS'Lifang Gu'
p2679
F0.10526315789473684
sS'Akitsugu Watanabe'
p2680
F0.060606060606060608
sS'Shaohua Kevin Zhou'
p2681
F0.10638297872340426
sS'Howard R. Turtle'
p2682
F0.049875311720698257
sS'Zhen Liu'
p2683
F0.04363636363636364
sS'Roberto Bergamini'
p2684
F0.33333333333333331
sS'Feng Lin'
p2685
F0.13953488372093023
sS'Gisela Mendez'
p2686
F0.26666666666666666
sS'Jim Diederich'
p2687
F0.27027027027027029
sS'Veronique Tietz'
p2688
F0.17142857142857143
sS'Pavel Moravec'
p2689
F0.13043478260869565
sS'Josef Sivic'
p2690
F0.25
sS'Kevin Gorczowski'
p2691
F0.27777777777777779
sS'Jyh-Jong Tsay'
p2692
F0.13333333333333333
sS'Linh Thai Nguyen'
p2693
F0.13793103448275862
sS'Subhash Suri'
p2694
F0.025974025974025976
sS'Chris Mesterharm'
p2695
F0.090909090909090912
sS'Ewa Jaslikowska'
p2696
F0.17647058823529413
sS'Eishiro Seki'
p2697
F0.12244897959183673
sS'Kurt Maly'
p2698
F0.12244897959183673
sS'Ryan Johnson'
p2699
F0.29999999999999999
sS'Steven Geffner'
p2700
F0.0625
sS'Kyoung Mu Lee'
p2701
F0.067114093959731544
sS'Alan F. Smeaton'
p2702
F0.0077821011673151752
sS'Saburo Tsuji'
p2703
F0.060240963855421686
sS'Jiong Yang'
p2704
F0.033647375504710635
sS'Paul McKevitt'
p2705
F0.17241379310344829
sS'Luis Ramos'
p2706
F0.30303030303030304
sS'Jian Yin'
p2707
F0.054054054054054057
sS'Kan Deng'
p2708
F0.10909090909090909
sS'Kyriakos Mouratidis'
p2709
F0.021897810218978103
sS'Jianhua Feng'
p2710
F0.0111731843575419
sS'Nikos Mamoulis'
p2711
F0.02258610954263128
sS'Zahir Tari'
p2712
F0.084033613445378158
sS'Alan Ableson'
p2713
F0.16216216216216217
sS'Xueqi Cheng'
p2714
F0.013274336283185841
sS'Miguel Castro'
p2715
F1
sS'Hongjun Lu'
p2716
F0.014223029202602511
sS'Sylvain Baillet'
p2717
F0.20833333333333334
sS'Michiaki Tatsubori'
p2718
F0.093023255813953487
sS'Nicholas Roy'
p2719
F0.038461538461538464
sS'Fabien Scalzo'
p2720
F0.18867924528301888
sS'Peter Meer'
p2721
F0.036101083032490974
sS'Micheal Hewett'
p2722
F0.12244897959183673
sS'Jong Soo Park'
p2723
F0.03870967741935484
sS'Jean Ponce'
p2724
F0.1556420233463035
sS'Dennis G. Allard'
p2725
F0.17647058823529413
sS'Facundo Bromberg'
p2726
F0.056603773584905662
sS'Amit Chandel'
p2727
F0.044776119402985072
sS'Oliviero Stock'
p2728
F0.031578947368421054
sS'David W. Jacobs'
p2729
F0.083769633507853408
sS'Daniel Zinn'
p2730
F0.26315789473684209
sS'Li Ma'
p2731
F0.049586776859504134
sS'Manoranjan Dash'
p2732
F0.038095238095238099
sS'Ashwin Ram'
p2733
F0.017291066282420751
sS'Graham Cormode'
p2734
F0.006713912719134651
sS'Tansel Okay'
p2735
F0.35714285714285715
sS'Connie Wu'
p2736
F0.23999999999999999
sS'Shaorong Liu'
p2737
F0.03968253968253968
sS'Masafumi Gotoh'
p2738
F0.30303030303030304
sS'Hakan Ferhatosmanoglu'
p2739
F0.015645371577574969
sS'Davood Rafiei'
p2740
F0.020408163265306121
sS'David Minnen'
p2741
F0.047619047619047616
sS'Lei Tang'
p2742
F0.043165467625899283
sS'Kozo Ishihara'
p2743
F0.3125
sS'Katsushi Ikeuchi'
p2744
F0.084745762711864403
sS'Xiaogang Wang'
p2745
F0.10526315789473684
sS'Chia-Hao Lo'
p2746
F0.125
sS'Sham M. Kakade'
p2747
F0.085714285714285715
sS'Khaled M. Bugrara'
p2748
F0.1276595744680851
sS'Per-\xc3\x85ke Larson'
p2749
F0.011695906432748537
sS'Qiu Fengwu'
p2750
F0.21276595744680851
sS'Gianni Mainetto'
p2751
F0.084507042253521125
sS'Eduardo B. Fern\xc3\xa1ndez'
p2752
F0.071428571428571425
sS'Yuri Kosharovsky'
p2753
F0.18181818181818182
sS'Svetlozar Nestorov'
p2754
F0.16949152542372881
sS'J. K. Aggarwal'
p2755
F0.15384615384615385
sS'Junzhong Gu'
p2756
F0.3125
sS'Yaacov Choueka'
p2757
F0.026200873362445413
sS'Dhamir N. Mannai'
p2758
F0.1276595744680851
sS'John Riedl'
p2759
F0.010169491525423728
sS'Latha S. Colby'
p2760
F0.035842293906810034
sS'John M. Aronis'
p2761
F0.12
sS'Michael Isard'
p2762
F0.25
sS'Cyrus Shahabi'
p2763
F0.036881810561609385
sS'Chi-Yuan Lo'
p2764
F0.23255813953488372
sS'Gaurav Aggarwal'
p2765
F0.20952380952380953
sS'L. Maugis'
p2766
F0.26315789473684209
sS'Sabyasachi Saha'
p2767
F0.14285714285714285
sS'Brian Falkenhainer'
p2768
F0.013986013986013986
sS'Alexei A. Efros'
p2769
F0.27027027027027029
sS'Paul S. Bradley'
p2770
F0.023904382470119521
sS'Djemel Ziou'
p2771
F0.030864197530864196
sS'Kevin P. Murphy'
p2772
F0.046511627906976744
sS'Michael Gertz'
p2773
F0.061728395061728392
sS'Shanchan Wu'
p2774
F0.14285714285714285
sS'Yushi Jing'
p2775
F0.065934065934065936
sS'Xiuzhen Zhang'
p2776
F0.10975609756097561
sS'Ke Yang'
p2777
F0.070588235294117646
sS'Anja Theobald'
p2778
F0.03669724770642202
sS'Jeremy Kubica'
p2779
F0.09580838323353294
sS'Matthew J. Rattigan'
p2780
F0.046875
sS'Ronald Fagin'
p2781
F0.014162077104642014
sS'John Grant'
p2782
F0.13513513513513514
sS'Yusuke Miyao'
p2783
F0.10714285714285714
sS'Kyu-Young Whang'
p2784
F0.03110209601081812
sS'Andrew C. Myers'
p2785
F1
sS'Ilker Durusoy'
p2786
F0.35714285714285715
sS'Truxton Fulton'
p2787
F0.086956521739130432
sS'Xiaohui Yu'
p2788
F0.034246575342465752
sS'Jieping Ye'
p2789
F0.010550996483001172
sS'James Bailey'
p2790
F0.013761467889908258
sS'Chih-Chong Lee'
p2791
F0.17647058823529413
sS'Fereidoon Sadri'
p2792
F0.023166023166023165
sS'Shetal Shah'
p2793
F0.042553191489361701
sS'Yibin Chen'
p2794
F0.16216216216216217
sS'Biswajit Bose'
p2795
F0.23255813953488372
sS'Umeshwar Dayal'
p2796
F0.0045506257110352671
sS'Henry F. Korth'
p2797
F0.017015706806282723
sS'Edward Y. Chang'
p2798
F0.019522776572668113
sS'Felipe Cari\xc3\xb1o'
p2799
F0.03484320557491289
sS'Olivier D. Faugeras'
p2800
F0.056179775280898875
sS'Roi Blanco'
p2801
F0.024390243902439025
sS'Cesar Berrospi'
p2802
F0.16216216216216217
sS'Ophir Frieder'
p2803
F0.0063965884861407248
sS'Marius Leordeanu'
p2804
F0.089552238805970144
sS'Wolfgang Lindner'
p2805
F0.071428571428571425
sS'Laurent Simon'
p2806
F0.089552238805970144
sS'John R. Kender'
p2807
F0.071856287425149698
sS'Jan Paredaens'
p2808
F0.082508250825082508
sS'Shengen Li'
p2809
F0.18181818181818182
sS'Nigel Livingston'
p2810
F0.089552238805970144
sS'Nicolas Spyratos'
p2811
F0.010572687224669603
sS'Einoshin Suzuki'
p2812
F0.011695906432748537
sS'Eliyahu Safra'
p2813
F0.2857142857142857
sS'Koichi Hashimoto'
p2814
F0.16393442622950818
sS'Z. Meral \xc3\x96zsoyoglu'
p2815
F0.012658227848101266
sS'Dirk H\xc3\xa4hnel'
p2816
F0.22222222222222221
sS'Richard T. Snodgrass'
p2817
F0.011331444759206799
sS'David S. Munro'
p2818
F0.21428571428571427
sS'Xianchang Wang'
p2819
F0.13636363636363635
sS'Amit Manjhi'
p2820
F0.052173913043478258
sS'Norbert Ritter'
p2821
F0.10309278350515463
sS'Kaivan Kamali'
p2822
F0.14285714285714285
sS'Ding-Ying Chiu'
p2823
F0.084507042253521125
sS'Thomas St\xc3\xbctzle'
p2824
F0.069767441860465115
sS'Catherine Baudin'
p2825
F0.024193548387096774
sS'Yaling Pei'
p2826
F0.13953488372093023
sS'Marcos R. Vieira'
p2827
F0.14285714285714285
sS'Cem Evrendilek'
p2828
F0.2247191011235955
sS'Simone Rehm'
p2829
F0.43243243243243246
sS'Andreas Heuer'
p2830
F0.11173184357541899
sS'Andrew E. Santosa'
p2831
F0.15789473684210525
sS'Alper Yilmaz'
p2832
F0.18518518518518517
sS'Jianbo Shi'
p2833
F0.092592592592592587
sS'C. Tung'
p2834
F0.16666666666666666
sS'D. J-Lewis'
p2835
F0.17142857142857143
sS'Joseph Lee'
p2836
F0.15789473684210525
sS'Peter J. Haas'
p2837
F0.0046260601387818042
sS'Uri Shaft'
p2838
F0.075949367088607597
sS'Patrick Tufts'
p2839
F0.13953488372093023
sS'Andrew Moore'
p2840
F0.077519379844961239
sS'G. Ayorkor Mills-Tettey'
p2841
F0.17142857142857143
sS'Lalit Kumar'
p2842
F0.24390243902439024
sS'Ioannis Kapantaidakis'
p2843
F0.15384615384615385
sS'Evangelos Kanoulas'
p2844
F0.053571428571428568
sS'Hans-Peter Kriegel'
p2845
F0.01241181774783854
sS'Jia Chen'
p2846
F0.19607843137254902
sS'Reynold Cheng'
p2847
F0.041514041514041512
sS'Philippe Rigaux'
p2848
F0.054545454545454543
sS'Won Kim'
p2849
F0.041331303023711116
sS'Aris Anagnostopoulos'
p2850
F0.028985507246376812
sS'Takekazu Kato'
p2851
F0.14285714285714285
sS'Jean-Philippe Thiran'
p2852
F0.20833333333333334
sS'Sanjiang Li'
p2853
F0.060606060606060608
sS'Roger King'
p2854
F0.055401662049861494
sS'Barry Smyth'
p2855
F0.0022246941045606229
sS'Kathy Lee Simunich'
p2856
F0.23809523809523808
sS'Esra Erdem'
p2857
F0.036363636363636362
sS'Shuhei Aida'
p2858
F0.076923076923076927
sS'Ian D. Reid'
p2859
F0.125
sS'Subrata Ghosh'
p2860
F0.10714285714285714
sS'Tian Bu'
p2861
F0.125
sS'Pavel Dimitrov'
p2862
F0.23999999999999999
sS'Scott Gaffney'
p2863
F0.077519379844961239
sS'Shiming Xiang'
p2864
F0.061728395061728392
sS'John Yen'
p2865
F0.02181818181818182
sS'H. F. Ting'
p2866
F0.15789473684210525
sS'Alan Dearle'
p2867
F0.09375
sS'Jean Martinet'
p2868
F0.10869565217391304
sS'Paul W. Fieguth'
p2869
F0.13157894736842105
sS'Tiankai Tu'
p2870
F0.17647058823529413
sS'Lei Yu'
p2871
F0.010238907849829351
sS'Johannes Gehrke'
p2872
F0.007064868336544637
sS'Ting Yu'
p2873
F0.02181818181818182
sS'Adel Shrufi'
p2874
F0.1111111111111111
sS'Erik G. Miller'
p2875
F0.16216216216216217
sS'Manuela M. Veloso'
p2876
F0.0054945054945054949
sS'Mingsheng Ying'
p2877
F0.10909090909090909
sS'Eman Anwar'
p2878
F0.14285714285714285
sS'Peter Sander'
p2879
F0.21739130434782608
sS'Stefano Ferilli'
p2880
F0.06535947712418301
sS'Hiroshi Ishikawa'
p2881
F0.082644628099173556
sS'Dorin Comaniciu'
p2882
F0.082644628099173556
sS'Ling Liu'
p2883
F0.027374301675977653
sS'Marie desJardins'
p2884
F0.032786885245901641
sS'Shu Tao'
p2885
F0.19354838709677419
sS'Mirek Riedewald'
p2886
F0.0111731843575419
sS'Fumihiro Matsuo'
p2887
F0.17142857142857143
sS'Jianguo Li'
p2888
F0.14925373134328357
sS'Michael Chan'
p2889
F0.27027027027027029
sS'Wisam Dakka'
p2890
F0.10204081632653061
sS'Rui Zhang 0003'
p2891
F0.10928961748633879
sS'Anand Ranganathan'
p2892
F0.05128205128205128
sS'Felix Naumann'
p2893
F0.018575851393188854
sS'Jean-Gabriel Ganascia'
p2894
F0.019230769230769232
sS'C\xc3\xa9line Robardet'
p2895
F0.04878048780487805
sS'Aparna Lakshmi Ratan'
p2896
F0.098039215686274508
sS'Martin Halvey'
p2897
F0.089552238805970144
sS'Jinchuan Chen'
p2898
F0.059999999999999998
sS'Xiaokui Xiao'
p2899
F0.030612244897959183
sS'Knot Pipatsrisawat'
p2900
F0.10526315789473684
sS'V\xc3\xa1clav Hlav\xc3\xa1c'
p2901
F0.090909090909090912
sS'Biplob K. Debnath'
p2902
F0.17142857142857143
sS'Roger Weber'
p2903
F0.015037593984962405
sS'James Davis'
p2904
F0.19108280254777071
sS'Xiaobin Ma'
p2905
F0.14084507042253522
sS'Dimitrios Makris'
p2906
F0.29411764705882354
sS'Hartmut Noltemeier'
p2907
F0.23809523809523808
sS'Thomas G. Dietterich'
p2908
F0.0078239608801955983
sS'Matthias Jarke'
p2909
F0.014492753623188406
sS'Erdem Kemik'
p2910
F0.22727272727272727
sS'Marina Roesler'
p2911
F0.19230769230769232
sS'Haris Georgiadis'
p2912
F0.060606060606060608
sS'Bikramjit Banerjee'
p2913
F0.026200873362445413
sS'David A. Forsyth'
p2914
F0.11428571428571428
sS'Paolo Ciaccia'
p2915
F0.01279317697228145
sS'Jean-Marc Th\xc3\xa9venin'
p2916
F0.07407407407407407
sS'Lionel M. Ni'
p2917
F0.12
sS'Johannes A\xc3\x9ffalg'
p2918
F0.028818443804034581
sS'Roman A. Polyak'
p2919
F0.21276595744680851
sS'Kian-Lee Tan'
p2920
F0.014846235418875928
sS'Peter Muth'
p2921
F0.024937655860349128
sS'Gerard V. Conroy'
p2922
F0.13043478260869565
sS'Dunren Che'
p2923
F0.14634146341463414
sS'Michael Doherty'
p2924
F0.18867924528301888
sS'Fumiaki Tomita'
p2925
F0.15625
sS'Vincent Shin-Mu Tseng'
p2926
F0.046153846153846156
sS'Mark S. Ackerman'
p2927
F0.12244897959183673
sS'Douglas Burdick'
p2928
F0.055555555555555552
sS'Randy Goebel'
p2929
F0.052631578947368418
sS'Amin Vahdat'
p2930
F0.10000000000000001
sS'Peng Chang'
p2931
F0.3125
sS'Yi Liu'
p2932
F0.02843601895734597
sS'Darrell Woelk'
p2933
F0.098765432098765427
sS'Goetz Graefe'
p2934
F0.019621583742116328
sS'Constantin F. Aliferis'
p2935
F0.038461538461538464
sS'Kai Zhao'
p2936
F0.33333333333333331
sS'Dan E. Willard'
p2937
F0.034682080924855488
sS'Juha K\xc3\xa4rkk\xc3\xa4inen'
p2938
F0.12
sS'Zhewei Jiang'
p2939
F0.047244094488188976
sS'Seppo Sippu'
p2940
F0.051724137931034482
sS'Giorgio Ghelli'
p2941
F0.19801980198019803
sS'Jun Yan'
p2942
F0.012605042016806723
sS'Nivio Ziviani'
p2943
F0.01098901098901099
sS'Oren Etzioni'
p2944
F0.0068886337543053958
sS'Anand Srinivasan'
p2945
F0.096774193548387094
sS'George Karypis'
p2946
F0.0092592592592592587
sS'Jui-Tine Lee'
p2947
F0.32653061224489793
sS'Paolo Baggia'
p2948
F0.1276595744680851
sS'A. Mounir Alaoui'
p2949
F0.12
sS'John Woodfill'
p2950
F0.046511627906976744
sS'Yuh-Ming Shyy'
p2951
F0.13513513513513514
sS'Douglas W. Cornell'
p2952
F0.018633540372670808
sS'Dominique Rieu'
p2953
F0.25641025641025639
sS'Aloysius Cornelio'
p2954
F0.12048192771084337
sS'Bin Zhao'
p2955
F0.10909090909090909
sS'Ying Chen'
p2956
F0.091603053435114504
sS'Rong Yan'
p2957
F0.030612244897959183
sS'Nicolas Dieu'
p2958
F0.35714285714285715
sS'Byung Suk Lee'
p2959
F0.14492753623188406
sS'Xinyu Guo'
p2960
F0.10909090909090909
sS'Ming-Hsuan Yang'
p2961
F0.06535947712418301
sS'Chih-Cheng Hsu'
p2962
F0.13953488372093023
sS'Shuiwang Ji'
p2963
F0.019736842105263157
sS'Muthiah M. Muthiah Chettiar'
p2964
F0.18181818181818182
sS'Ying Li'
p2965
F0.032608695652173912
sS'Wei Xiong'
p2966
F0.30303030303030304
sS'Klaus K\xc3\xbcspert'
p2967
F0.096153846153846159
sS'Matthias Nicola'
p2968
F0.045801526717557252
sS'Hieu Tat Nguyen'
p2969
F0.19607843137254902
sS'Hongyuan Zha'
p2970
F0.008155867693701857
sS'Andrew Proudfoot'
p2971
F0.27777777777777779
sS'Wei-Ying Ma'
p2972
F0.01314708299096138
sS'Boalin Yin'
p2973
F0.25
sS'Brian Beckman'
p2974
F0.25641025641025639
sS'Christian B\xc3\xb6hm'
p2975
F0.023020257826887661
sS'Wan Po Man Polly'
p2976
F0.1111111111111111
sS'Madhu Reddy'
p2977
F0.21276595744680851
sS'Robin Von Boeschoten'
p2978
F0.15384615384615385
sS'Mark Edgington'
p2979
F0.23255813953488372
sS'Timos K. Sellis'
p2980
F0.023555804823331465
sS'Feida Zhu'
p2981
F0.036363636363636362
sS'Yehoshua Perl'
p2982
F0.14606741573033707
sS'Michael L. Littman'
p2983
F0.014705882352941176
sS'Douglas P. Metzler'
p2984
F0.095238095238095233
sS'Kin-pong Chan'
p2985
F0.18181818181818182
sS'Thomas D. Wu'
p2986
F0.096774193548387094
sS'Claudio Rullent'
p2987
F0.03015075376884422
sS'Vassos Hadzilacos'
p2988
F0.089743589743589744
sS'Ulf Brefeld'
p2989
F0.023166023166023165
sS'Emanuele Ciapessoni'
p2990
F0.21276595744680851
sS'J\xc3\xbcrgen Schmidhuber'
p2991
F0.013986013986013986
sS'Xiaoming Jin'
p2992
F0.021428571428571429
sS'Arjen P. de Vries'
p2993
F0.0099667774086378731
sS'Goce Trajcevski'
p2994
F0.065789473684210523
sS'Neel Sundaresan'
p2995
F0.035714285714285712
sS'Horace Enea'
p2996
F0.070588235294117646
sS'Huahai He'
p2997
F0.044117647058823532
sS'Devi Parikh'
p2998
F0.27777777777777779
sS'Wenjie Zhang'
p2999
F0.068965517241379309
sS'Yanif Ahmad'
p3000
F0.020338983050847456
sS'Gagan Agrawal'
p3001
F0.05896805896805897
sS'Jason Rennie'
p3002
F0.089552238805970144
sS'Shigeki Sugimoto'
p3003
F0.13636363636363635
sS'Steven A. Shafer'
p3004
F0.12987012987012986
sS'Henry M. Levy'
p3005
F0.11214953271028037
sS'Martin Hardwick'
p3006
F0.091743119266055051
sS'Manfred A. Jeusfeld'
p3007
F0.26315789473684209
sS'Volker Roth'
p3008
F0.10909090909090909
sS'Kristin Tufte'
p3009
F0.042553191489361701
sS'Christopher Meek'
p3010
F0.017045454545454544
sS'Bin Cui'
p3011
F0.089219330855018583
sS'Yixiu Huang'
p3012
F0.082644628099173556
sS'Chengwen Liu'
p3013
F0.0093896713615023476
sS'Rafael Alonso'
p3014
F0.051575931232091692
sS'Ondrej Chum'
p3015
F0.29411764705882354
sS'Kai-Ming Lin'
p3016
F0.26315789473684209
sS'Fei Wu'
p3017
F0.088495575221238937
sS'Karsten M. Borgwardt'
p3018
F0.047619047619047616
sS'Thierry Coupaye'
p3019
F0.25396825396825395
sS'Ken Q. Pu'
p3020
F0.076923076923076927
sS'Shahram Ghandeharizadeh'
p3021
F0.065420560747663545
sS'Camper English'
p3022
F0.1276595744680851
sS'Susan J. Lederman'
p3023
F0.17857142857142858
sS'Oscar Nierstrasz'
p3024
F0.2857142857142857
sS'Glenn Healey'
p3025
F0.029585798816568046
sS'Beng Chin Ooi'
p3026
F0.018015732047703629
sS'Chun Chen'
p3027
F0.0098846787479406912
sS'Vineeta Darnis'
p3028
F0.32258064516129031
sS'Dongmei Ren'
p3029
F0.042253521126760563
sS'Carlos Phillips'
p3030
F0.23999999999999999
sS'Serdar Kadioglu'
p3031
F0.21428571428571427
sS'Joseph M. Hellerstein'
p3032
F0.0039130434782608699
sS'F. Ho'
p3033
F0.24390243902439024
sS'Marios Hadjieleftheriou'
p3034
F0.030598052851182198
sS'Shang-Hong Lai'
p3035
F0.13636363636363635
sS'Han Liu'
p3036
F0.080000000000000002
sS'Sorin Sav'
p3037
F0.27027027027027029
sS'Martin Buchheit'
p3038
F0.10989010989010989
sS'Aral Ege'
p3039
F0.21739130434782608
sS'Thomas Heinis'
p3040
F0.22222222222222221
sS'Han Lin'
p3041
F0.044444444444444446
sS'J. Leon Zhao'
p3042
F0.023255813953488372
sS'Duane Szafron'
p3043
F0.025125628140703519
sS'HweeHwa Pang'
p3044
F0.018072289156626505
sS'David Sontag'
p3045
F0.30303030303030304
sS'David J. DeWitt'
p3046
F0.012974051896207584
sS'Yuanzhi Zhang'
p3047
F0.26315789473684209
sS'Wen Qiang Wang'
p3048
F0.14634146341463414
sS'Jian Liu'
p3049
F0.17647058823529413
sS'Chun Kit Chui'
p3050
F0.075949367088607597
sS'Alberto O. Mendelzon'
p3051
F0.0099099099099099093
sS'Venkat Ajjanagadde'
p3052
F0.064516129032258063
sS'Kaleem Siddiqi'
p3053
F0.056074766355140186
sS'David A. Hull'
p3054
F0.025104602510460251
sS'Michael I. Jordan'
p3055
F0.0065789473684210523
sS'Christoph H\xc3\xbcbel'
p3056
F0.21739130434782608
sS'Siddhartha Bhattacharyya'
p3057
F0.086206896551724144
sS'Sourav S. Bhowmick'
p3058
F0.010554089709762533
sS'David E. Losada'
p3059
F0.03125
sS'Kurt Konolige'
p3060
F0.016051364365971106
sS'Yunhao Liu'
p3061
F0.092307692307692313
sS'Vivekananda Maganty'
p3062
F0.2857142857142857
sS'Fred Douglis'
p3063
F0.057142857142857141
sS'Chun-Hee Lee'
p3064
F0.13333333333333333
sS'Jing Liu'
p3065
F0.1388888888888889
sS'Franky Lam'
p3066
F0.17142857142857143
sS'Hieu LeKhac'
p3067
F0.13953488372093023
sS'Ka Cheung Sia'
p3068
F0.10526315789473684
sS'Caetano Traina Jr.'
p3069
F0.019047619047619049
sS'Jos\xc3\xa9 Meseguer'
p3070
F0.27777777777777779
sS'Qiming Chen'
p3071
F0.023255813953488372
sS'Jeffrey Scott Vitter'
p3072
F0.011356466876971609
sS'Yi Zhang'
p3073
F0.029882604055496264
sS'Michael Potmesil'
p3074
F0.18867924528301888
sS'Meera Jindal'
p3075
F0.17142857142857143
sS'Jianlin Feng'
p3076
F0.10526315789473684
sS'Richard A. Hankins'
p3077
F0.078947368421052627
sS'Jun Huan'
p3078
F0.059999999999999998
sS'K. L. Lee'
p3079
F0.13636363636363635
sS'Andre Cohen'
p3080
F0.3902439024390244
sS'Kenneth A. Ross'
p3081
F0.0044676098287416231
sS'Fatma \xc3\x96zcan'
p3082
F0.041095890410958902
sS'Minmin Chen'
p3083
F0.13636363636363635
sS'Robert Rounthwaite'
p3084
F0.13636363636363635
sS'Sheng Ma'
p3085
F0.0056497175141242938
sS'Norbert S\xc3\xbcdkamp'
p3086
F0.086206896551724144
sS'Vipin Kumar'
p3087
F0.0052770448548812663
sS'Joost N. Kok'
p3088
F0.056603773584905662
sS'Tzi-cker Chiueh'
p3089
F0.053156146179401995
sS'Berthold K. P. Horn'
p3090
F0.13698630136986301
sS'Maureen Donnelly'
p3091
F0.16393442622950818
sS'Han-Pang Chiu'
p3092
F0.2857142857142857
sS'Wenjie Fu'
p3093
F0.086956521739130432
sS'Nilesh N. Dalvi'
p3094
F0.02575107296137339
sS'Sailesh Krishnamurthy'
p3095
F0.048387096774193547
sS'H. Lewis Chau'
p3096
F0.18181818181818182
sS'Voon-Fee Yong'
p3097
F0.42105263157894735
sS'Manfred Nagl'
p3098
F0.19230769230769232
sS'Sunil S. Nair'
p3099
F0.15625
sS'Michael Boshra'
p3100
F0.22727272727272727
sS'Viet Dung Dang'
p3101
F0.032967032967032968
sS'Byoung-Kee Yi'
p3102
F0.044776119402985072
sS'Ira Assent'
p3103
F0.056872037914691941
sS'Zhouyu Fu'
p3104
F0.22727272727272727
sS'Bj\xc3\xb6rn Ommer'
p3105
F0.23809523809523808
sS'Lin Li'
p3106
F0.037894736842105266
sS'Kevin Chen-Chuan Chang'
p3107
F0.0032232070910556002
sS'Michal Shmueli-Scheuer'
p3108
F0.21276595744680851
sS'Song Junde'
p3109
F0.15789473684210525
sS'Mohamed F. Mokbel'
p3110
F0.0095011876484560574
sS'Ashok Savasere'
p3111
F0.065934065934065936
sS'Minqi Zhou'
p3112
F0.15384615384615385
sS'Anthony K. H. Tung'
p3113
F0.0085836909871244635
sS'Ronen Basri'
p3114
F0.041666666666666664
sS'Raymond K. Wong'
p3115
F0.125
sS'Gholamreza Nakhaeizadeh'
p3116
F0.013333333333333334
sS'A. Ketterlin'
p3117
F0.10638297872340426
sS'Boris Epshtein'
p3118
F0.27027027027027029
sS'Wolf-Tilo Balke'
p3119
F0.078048780487804878
sS'Srinivasan Parthasarathy 0002'
p3120
F0.12244897959183673
sS'Nazli Goharian'
p3121
F0.019108280254777069
sS'Meinolf Sellmann'
p3122
F0.045801526717557252
sS'Jane W.-S. Liu'
p3123
F0.07874015748031496
sS'Jian Wu'
p3124
F0.11764705882352941
sS'Ti-Pin Chang'
p3125
F0.16949152542372881
sS'Rahul Sukthankar'
p3126
F0.077669902912621352
sS'Jan Van den Bussche'
p3127
F0.014673514306676448
sS'Yoram Moses'
p3128
F0.041379310344827586
sS'Stephanie W. Haas'
p3129
F0.18181818181818182
sS'Koichi Hori'
p3130
F0.10526315789473684
sS'Leslie Pack Kaelbling'
p3131
F0.031280547409579668
sS'Minos N. Garofalakis'
p3132
F0.0082440230832646327
sS'Sougata Mukherjea'
p3133
F0.016713091922005572
sS'Liana M. Lorigo'
p3134
F0.15384615384615385
sS'Sujeet Pradhan'
p3135
F0.12244897959183673
sS'Ramesh Raskar'
p3136
F0.25641025641025639
sS'Laura M. Haas'
p3137
F0.012722646310432569
sS'Ashish Kundu'
p3138
F0.0625
sS'Laurent Tardif'
p3139
F0.16666666666666666
sS'Chu Min Li'
p3140
F0.054545454545454543
sS'Ricky K. Taira'
p3141
F0.18867924528301888
sS'Baohua Gu'
p3142
F0.13043478260869565
sS'Ram Keralapura'
p3143
F0.13953488372093023
sS'Siva Ravada'
p3144
F0.038610038610038609
sS'Andrew McCallum'
p3145
F0.0059016393442622951
sS'Colin L. Carter'
p3146
F0.15584415584415584
sS'Adam Woznica'
p3147
F0.053191489361702128
sS'Darrell D. E. Long'
p3148
F0.15094339622641509
sS'Gregory A. Riccardi'
p3149
F0.19230769230769232
sS'Fran\xc3\xa7ois Llirbat'
p3150
F0.04975124378109453
sS'Li Wang'
p3151
F0.048000000000000001
sS'Paolo Atzeni'
p3152
F0.014211886304909561
sS'Li Chen'
p3153
F0.027777777777777776
sS'Bijan Arbab'
p3154
F0.15151515151515152
sS'Rong Zhou'
p3155
F0.018749999999999999
sS'J\xc3\xa9r\xc3\xb4me Sim\xc3\xa9on'
p3156
F0.019672131147540985
sS'Jin Jing'
p3157
F0.16666666666666666
sS'Ladjel Bellatreche'
p3158
F0.061855670103092786
sS'Luis Talavera'
p3159
F0.020408163265306121
sS'Bernd Fischer'
p3160
F0.090909090909090912
sS'Nicolas Tarrisson'
p3161
F0.20833333333333334
sS'Nebojsa Stefanovic'
p3162
F0.06741573033707865
sS'Xing Chen'
p3163
F0.30303030303030304
sS'Tsuhan Chen'
p3164
F0.22222222222222221
sS'Cheng-Fa Tsai'
p3165
F0.068965517241379309
sS'Guido Moerkotte'
p3166
F0.02615470228158041
sS'Thomas Kollar'
p3167
F0.1276595744680851
sS'Yuan Ni'
p3168
F0.07407407407407407
sS'Sebastian Theophil'
p3169
F0.16216216216216217
sS'Guizhen Yang'
p3170
F0.029411764705882353
sS'Jelena Tesic'
p3171
F0.13636363636363635
sS'Dongjoon Hyun'
p3172
F0.14999999999999999
sS'Ramana Yerneni'
p3173
F0.043478260869565216
sS'Rishiyur S. Nikhil'
p3174
F0.13953488372093023
sS'Andrew Rau-Chaplin'
p3175
F0.068965517241379309
sS'Mohammad Mannan'
p3176
F0.14999999999999999
sS'Heinz Marburger'
p3177
F0.086956521739130432
sS'Balint Molnar'
p3178
F0.18518518518518517
sS'H. Isil Bozma'
p3179
F0.1388888888888889
sS'Harry Leslie'
p3180
F0.19354838709677419
sS'Ralph Krieger'
p3181
F0.068181818181818177
sS'Ping Wu'
p3182
F0.093567251461988299
sS'Daniel S. Weld'
p3183
F0.0033594624860022394
sS'Stefan Brecheisen'
p3184
F0.15384615384615385
sS'St\xc3\xa9phane Grumbach'
p3185
F0.070422535211267609
sS'Rajdeep K. Dash'
p3186
F0.089552238805970144
sS'Miyuki Ono'
p3187
F0.10000000000000001
sS'Mostafa A. Bassiouni'
p3188
F0.086956521739130432
sS'Shamim A. Naqvi'
p3189
F0.027027027027027029
sS'Florent Masseglia'
p3190
F0.092307692307692313
sS'Shahriar Negahdaripour'
p3191
F0.093457943925233641
sS'Alan T. Murray'
p3192
F0.089552238805970144
sS'Choon Hui Teo'
p3193
F0.092307692307692313
sS'Massimiliano Ruffolo'
p3194
F0.15789473684210525
sS"David R. O'Hallaron"
p3195
F0.17647058823529413
sS'Yonghe Niu'
p3196
F0.15789473684210525
sS'John C. Mallery'
p3197
F0.10526315789473684
sS'Christer Samuelsson'
p3198
F0.083333333333333329
sS'De-Nian Yang'
p3199
F0.19230769230769232
sS'James W. Warner'
p3200
F0.10909090909090909
sS'Waheed Qureshi'
p3201
F0.18518518518518517
sS'Rakesh M. Verma'
p3202
F0.20000000000000001
sS'Jochen Van den Bercken'
p3203
F0.032345013477088951
sS'Joachim W. Schmidt'
p3204
F0.026359143327841845
sS'William A. Andersen'
p3205
F0.059405940594059403
sS'Zhong Zhang'
p3206
F0.10752688172043011
sS'Ferhan T\xc3\xbcre'
p3207
F0.14285714285714285
sS'Mark Lavin'
p3208
F0.29411764705882354
sS'Nicola Fanizzi'
p3209
F0.067114093959731544
sS'Sherman Lau'
p3210
F0.15384615384615385
sS'Christin Seifert'
p3211
F0.22222222222222221
sS'Lei Zou'
p3212
F0.088235294117647065
sS'Svilen Mihaylov'
p3213
F0.13636363636363635
sS'Hiroshi Motoda'
p3214
F0.0028063610851262861
sS'Kevin Q. Gallagher'
p3215
F0.10714285714285714
sS'Yihong Qian'
p3216
F0.25
sS'Xiaofeng Ren'
p3217
F0.19230769230769232
sS"Shin'ichi Satoh"
p3218
F0.021897810218978103
sS'Jinyan Li'
p3219
F0.0084745762711864406
sS'Dimitri Theodoratos'
p3220
F0.023166023166023165
sS'Daniel Barbar\xc3\xa1'
p3221
F0.042553191489361701
sS'Alin Achim'
p3222
F0.23809523809523808
sS'Necip Fazil Ayan'
p3223
F0.088235294117647065
sS'Willard W. Farley'
p3224
F0.25
sS'Igor Tatarinov'
p3225
F0.04878048780487805
sS'Jun Rekimoto'
p3226
F0.26315789473684209
sS'Pierre Kornprobst'
p3227
F0.17241379310344829
sS'Hongbo Xu'
p3228
F0.052631578947368418
sS'Hiroki Arimura'
p3229
F0.032786885245901641
sS'Richard Kuntschke'
p3230
F0.10084033613445378
sS'Qiang Wang'
p3231
F0.031746031746031744
sS'Kaustubh Deshpande'
p3232
F0.20689655172413793
sS'Rong Liu'
p3233
F0.16666666666666666
sS'Herman Lam'
p3234
F0.11627906976744186
sS'Goutam Sinha'
p3235
F0.29411764705882354
sS'Kwok-Yan Lam'
p3236
F0.10169491525423729
sS'Padraig Cunningham'
p3237
F0.0080753701211305519
sS'David Carmel'
p3238
F0.010050251256281407
sS'John-Paul Renno'
p3239
F0.29411764705882354
sS'Jinbo Bi'
p3240
F0.014652014652014652
sS'Srinivasan Parthasarathy'
p3241
F0.011647254575707155
sS'Sunil Prabhakar'
p3242
F0.017391304347826087
sS'Ling Feng'
p3243
F0.046153846153846156
sS'Jian Sun'
p3244
F0.19607843137254902
sS'Li Yi'
p3245
F0.17142857142857143
sS'KangSeuk Kim'
p3246
F0.34782608695652173
sS'Pietro Perona'
p3247
F0.064724919093851127
sS'Yuksel Saygin'
p3248
F0.35714285714285715
sS'Deborah L. McGuinness'
p3249
F0.037037037037037035
sS'Christian R. Huyck'
p3250
F0.20000000000000001
sS'Andreas Turk'
p3251
F0.17857142857142858
sS'Belle L. Tseng'
p3252
F0.0088757396449704144
sS'Bharat K. Bhargava'
p3253
F0.035087719298245612
sS'Li Yu'
p3254
F0.15384615384615385
sS'Shamkant B. Navathe'
p3255
F0.029093160012380069
sS'Ole M\xc3\xb8ller Nielsen'
p3256
F0.21428571428571427
sS'Ron Sacks-Davis'
p3257
F0.029776674937965261
sS'Peter Klahold'
p3258
F0.080000000000000002
sS'Raghavan Srinivasan'
p3259
F0.13636363636363635
sS'Norman W. Paton'
p3260
F0.071684587813620068
sS'Sheng-Shun Wang'
p3261
F0.14634146341463414
sS'Dennis Tsichritzis'
p3262
F0.041580041580041582
sS'Hugh E. Williams'
p3263
F0.010471204188481676
sS'Shoji Hirano'
p3264
F0.016025641025641024
sS'Mario A. Lopez'
p3265
F0.11678832116788321
sS'Tsz S. Cheng'
p3266
F0.18181818181818182
sS'Matthew D. Schmill'
p3267
F0.0625
sS'Subbarao Ghanta'
p3268
F0.1875
sS'Zhiyong Peng'
p3269
F0.27027027027027029
sS'Tatsuya Asai'
p3270
F0.043165467625899283
sS'Lokendra Shastri'
p3271
F0.043795620437956206
sS'Luca Forlizzi'
p3272
F0.25641025641025639
sS'Junya Sakagaito'
p3273
F0.30303030303030304
sS'B. Sreenath'
p3274
F0.32653061224489793
sS'Gianni Costa'
p3275
F0.054054054054054057
sS'Ren\xc3\xa9 Alqu\xc3\xa9zar'
p3276
F0.27027027027027029
sS'John D. Moriarty'
p3277
F0.26315789473684209
sS'Bruce G. Lindsay'
p3278
F0.031128404669260701
sS'Jon A. Webb'
p3279
F0.25974025974025972
sS'Lyublena Antova'
p3280
F0.022388059701492536
sS'Alvaro A. A. Fernandes'
p3281
F0.046728971962616821
sS'Diane E. Hirsh'
p3282
F0.29411764705882354
sS'William Taysom'
p3283
F0.20833333333333334
sS'Christos Doulkeridis'
p3284
F0.053097345132743362
sS'Guoliang Fan'
p3285
F0.068965517241379309
sS'Vito Roberto'
p3286
F0.16666666666666666
sS'Wan-Sup Cho'
p3287
F0.21276595744680851
sS'Lincoln Stein'
p3288
F0.22222222222222221
sS'Jeyashankher Ramamirtham'
p3289
F0.13636363636363635
sS'Cherie Cheung'
p3290
F0.11538461538461539
sS'M. Pawan Kumar'
p3291
F0.090909090909090912
sS'Paul Iglinski'
p3292
F0.125
sS'Ching-Han Lin'
p3293
F0.13333333333333333
sS'Irfan A. Essa'
p3294
F0.033707865168539325
sS'David B. Lomet'
p3295
F0.013377926421404682
sS'Benjamin W. Wah'
p3296
F0.012875536480686695
sS'Reinhard Moratz'
p3297
F0.13157894736842105
sS'Chen Yu'
p3298
F0.19230769230769232
sS'Clement T. Yu'
p3299
F0.0046296296296296294
sS'Eric Hughes'
p3300
F0.15873015873015872
sS'Brian Phillips'
p3301
F0.21739130434782608
sS'Selma Ayse \xc3\x96zel'
p3302
F0.23809523809523808
sS'Jean-Pierre Briot'
p3303
F0.23255813953488372
sS'Soumen Chakrabarti'
p3304
F0.0047892720306513406
sS'Evangelos Dellis'
p3305
F0.065217391304347824
sS'Zhe Wang'
p3306
F0.13333333333333333
sS'A. M. Katcher'
p3307
F0.21428571428571427
sS'Tian Yu'
p3308
F0.13333333333333333
sS'Rahul Gupta'
p3309
F0.022058823529411766
sS'Quan Z. Sheng'
p3310
F0.025000000000000001
sS'Changshui Zhang'
p3311
F0.015078821110349555
sS'Michael D. Gordon'
p3312
F0.11538461538461539
sS'Yoichi Sato'
p3313
F0.12345679012345678
sS'Alan Fern'
p3314
F0.0068571428571428568
sS'Catriel Beeri'
p3315
F0.018399264029438821
sS'Haifeng Yu'
p3316
F0.10169491525423729
sS'Fernando V\xc3\xa9lez'
p3317
F0.21428571428571427
sS'Xiaohui Long'
p3318
F0.029268292682926831
sS'Junmin Gu'
p3319
F0.26666666666666666
sS'Zhiheng Li'
p3320
F0.16216216216216217
sS'Sangkyum Kim'
p3321
F0.13157894736842105
sS'Paolo Boldi'
p3322
F0.046153846153846156
sS'Christine Collet'
p3323
F0.27083333333333331
sS'Yasuhiro Fujiwara'
p3324
F0.19354838709677419
sS'Tu Bao Ho'
p3325
F0.0055710306406685237
sS'Shariq Bashir'
p3326
F0.12244897959183673
sS'T. S. Jayram'
p3327
F0.063157894736842107
sS'Arvind Rajendran'
p3328
F0.29411764705882354
sS'Fan Guo'
p3329
F0.086956521739130432
sS'Norbert G\xc3\xb6vert'
p3330
F0.060240963855421686
sS'Sugata Ghosal'
p3331
F0.033898305084745763
sS'Pauline Lienhua Chou'
p3332
F0.1276595744680851
sS'Yuguo Chen'
p3333
F0.071428571428571425
sS'Marek J. Druzdzel'
p3334
F0.047244094488188976
sS'Tapana Gupta'
p3335
F0.086956521739130432
sS'Qingqing Gan'
p3336
F0.10344827586206896
sS'Klaus R. Dittrich'
p3337
F0.046213093709884467
sS'Qiang Yang'
p3338
F0.0044023027429732475
sS'Jutai Zhou'
p3339
F0.33333333333333331
sS'Daniel P. Huttenlocher'
p3340
F0.12432432432432433
sS'Lubomir Bic'
p3341
F0.099009900990099015
sS'Rajeev Rastogi'
p3342
F0.015944839474251238
sS'Ambuj Tewari'
p3343
F0.16216216216216217
sS'David L. Spooner'
p3344
F0.076335877862595422
sS'Mikhail J. Atallah'
p3345
F0.020618556701030927
sS'Vikram Pudi'
p3346
F0.03614457831325301
sS'Dou Shen'
p3347
F0.0099403578528827041
sS'Javier Larrosa'
p3348
F0.078431372549019607
sS'E. K. Park'
p3349
F0.082987551867219914
sS'Pedro Domingos'
p3350
F0.019157088122605363
sS'Feng Yue'
p3351
F0.16666666666666666
sS'Chendong Zou'
p3352
F0.11764705882352941
sS'Daniel Wu'
p3353
F0.16666666666666666
sS'Edward Sciore'
p3354
F0.042372881355932202
sS'Willis Luther'
p3355
F0.3125
sS'Arno Sch\xc3\xb6dl'
p3356
F0.16216216216216217
sS'Joakim Arfvidsson'
p3357
F0.26315789473684209
sS'Maurizio Atzori'
p3358
F0.049180327868852458
sS'Ching-Chi Hsu'
p3359
F0.033898305084745763
sS'King-Ip Lin'
p3360
F0.023622047244094488
sS'Harald Sch\xc3\xb6ning'
p3361
F0.12779552715654952
sS'Christophe Meilhac'
p3362
F0.14634146341463414
sS'Ja-Yeon Jeong'
p3363
F0.27777777777777779
sS'Osmar R. Za\xc3\xafane'
p3364
F0.031545741324921134
sS'Amit K. Agrawal'
p3365
F0.25641025641025639
sS'Kumiyo Nakakoji'
p3366
F0.27027027027027029
sS'Shyh-Kwei Chen'
p3367
F0.1111111111111111
sS'David M. Dutton'
p3368
F0.13043478260869565
sS'Rattikorn Hewett'
p3369
F0.092307692307692313
sS'Cui Yu'
p3370
F0.10588235294117647
sS'Guido Gerig'
p3371
F0.27777777777777779
sS'Michael Kramer'
p3372
F0.27027027027027029
sS'Herv\xc3\xa9 Stora'
p3373
F0.20833333333333334
sS'Cetin Ozkan'
p3374
F0.35714285714285715
sS'Nelson F. F. Ebecken'
p3375
F0.20000000000000001
sS'Tak W. Yan'
p3376
F0.054054054054054057
sS'Yannis Manolopoulos'
p3377
F0.038461538461538464
sS'Lei Jiang'
p3378
F0.20689655172413793
sS'Ji Zhu'
p3379
F0.096774193548387094
sS'Hassan H. Malik'
p3380
F0.085714285714285715
sS'Jinfeng Ni'
p3381
F0.11764705882352941
sS'Benjamin Kuipers'
p3382
F0.0091491308325709064
sS'Gary Kratkiewicz'
p3383
F0.125
sS'Benjamin Deutsch'
p3384
F0.17241379310344829
sS'Hector Garcia-Molina'
p3385
F0.012409513960703205
sS'Wei Wang'
p3386
F0.014424810674359899
sS'Alok Kirpal'
p3387
F0.074999999999999997
sS'Jochen Renz'
p3388
F0.068965517241379309
sS'Hoda Mokhtar'
p3389
F0.34482758620689657
sS'Steven D. Gribble'
p3390
F0.095238095238095233
sS'Reshad Moussa'
p3391
F0.13043478260869565
sS'Zhiyong Huang'
p3392
F0.059880239520958084
sS'Rodrigo Damazio'
p3393
F0.17142857142857143
sS'Thierry Cruanes'
p3394
F0.068965517241379309
sS'Norio Katayama'
p3395
F0.063829787234042548
sS'Mohamed E. Khalefa'
p3396
F0.084507042253521125
sS'Robert M. Arlein'
p3397
F0.14084507042253522
sS'Rajiv Mehrotra'
p3398
F0.067114093959731544
sS'Mike P. Papazoglou'
p3399
F0.14285714285714285
sS'Billy B. L. Lim'
p3400
F0.34482758620689657
sS'Vassilis J. Tsotras'
p3401
F0.077839555202541696
sS'Joe Suzuki'
p3402
F0.11320754716981132
sS'Jens-Peter Dittrich'
p3403
F0.013071895424836602
sS'Peter M. G. Apers'
p3404
F0.013736263736263736
sS'Raymond A. Liuzzi'
p3405
F0.12
sS'Ga\xc3\xable Simon'
p3406
F0.26315789473684209
sS'Lawrence K. Saul'
p3407
F0.033898305084745763
sS'Elisa Bertino'
p3408
F0.024033437826541274
sS'Tod S. Levitt'
p3409
F0.18181818181818182
sS'Chinmoy Tripathy'
p3410
F0.33333333333333331
sS'Hui Xiong'
p3411
F0.019461077844311378
sS'Paul-Alexandru Chirita'
p3412
F0.012170385395537525
sS'Volker Markl'
p3413
F0.0032171581769436996
sS'Vladimir Pavlovic'
p3414
F0.016528925619834711
sS'Xin Hu'
p3415
F0.18181818181818182
sS'Jay Banerjee'
p3416
F0.13937282229965156
sS'Theodore Dalamagas'
p3417
F0.024489795918367346
sS'Sanjai Narain'
p3418
F0.18867924528301888
sS'R. Ananthanarayanan'
p3419
F0.16949152542372881
sS'Chi-Yuen Ng'
p3420
F0.098360655737704916
sS'Peiya Liu'
p3421
F0.016611295681063124
sS'Sandra de F. Mendes Sampaio'
p3422
F0.26315789473684209
sS'Jose de Gea'
p3423
F0.23255813953488372
sS'Magdalena Balazinska'
p3424
F0.018575851393188854
sS'Jean-Claude Mamou'
p3425
F0.1388888888888889
sS'Martin Schneider'
p3426
F0.16666666666666666
sS'Javed A. Aslam'
p3427
F0.0081743869209809257
sS'Ambuj K. Singh'
p3428
F0.020855057351407715
sS'Hisashi Miyashita'
p3429
F0.093023255813953487
sS'Felix Cheung'
p3430
F0.13953488372093023
sS'Yu-Ming Hsieh'
p3431
F0.15789473684210525
sS'Suzanne Rivoire'
p3432
F0.20000000000000001
sS'Raymond J. Mooney'
p3433
F0.0030706243602865915
sS'Ulle Endriss'
p3434
F0.058252427184466021
sS'Andrea Tagarelli'
p3435
F0.070588235294117646
sS'Piew Datta'
p3436
F0.03896103896103896
sS'Aijun An'
p3437
F0.039408866995073892
sS'Thomas Guckenbiehl'
p3438
F0.22222222222222221
sS'Muyuan Wang'
p3439
F0.27777777777777779
sS'Seyda Ertekin'
p3440
F0.057971014492753624
sS'Chung Wu'
p3441
F0.17142857142857143
sS'Giuliano Tirenni'
p3442
F0.16216216216216217
sS'Qiang Ji'
p3443
F0.056537102473498232
sS'Yanhua Li'
p3444
F0.11320754716981132
sS'Franco Mana'
p3445
F0.096774193548387094
sS'Jeffrey X. W. Su'
p3446
F0.1111111111111111
sS'Arbee L. P. Chen'
p3447
F0.026200873362445413
sS'Michael Stonebraker'
p3448
F0.005727533069684986
sS'Yong Zhang'
p3449
F0.07874015748031496
sS'Claudia Hess'
p3450
F0.14999999999999999
sS'Chau M. Hua'
p3451
F0.1111111111111111
sS'Vibby Gottemukkala'
p3452
F0.079365079365079361
sS'Armin Haller'
p3453
F0.18518518518518517
sS'Franck Dufrenois'
p3454
F0.14492753623188406
sS'Alexander L. Wolf'
p3455
F0.18181818181818182
sS'Josiane Xavier Parreira'
p3456
F0.10344827586206896
sS'Michael Ranft'
p3457
F0.43243243243243246
sS'Antonio Fari\xc3\xb1a'
p3458
F0.089552238805970144
sS'Yufei Tao'
p3459
F0.013053933356234971
sS'Tetsuji Kuboyama'
p3460
F0.06741573033707865
sS'Wen-Chih Peng'
p3461
F0.043715846994535519
sS'Andr\xc3\xa9 Elisseeff'
p3462
F0.16216216216216217
sS'Qi Li'
p3463
F0.031168831168831169
sS'Prakash Ramanan'
p3464
F0.125
sS'Matti Pietik\xc3\xa4inen'
p3465
F0.27027027027027029
sS'Zhiping Zeng'
p3466
F0.050420168067226892
sS'Danilo Montesi'
p3467
F0.085470085470085472
sS'Jasmine Novak'
p3468
F0.0234375
sS'Roger Ming Hieng Ting'
p3469
F0.11320754716981132
sS'Philip W. Smith'
p3470
F0.14285714285714285
sS'Mike Williamson'
p3471
F0.096774193548387094
sS'Wang Kay Ngai'
p3472
F0.10526315789473684
sS'Jost Enderle'
p3473
F0.055045871559633031
sS'Alessandro Cimatti'
p3474
F0.032967032967032968
sS'Mohammad A. Ketabchi'
p3475
F0.10526315789473684
sS'Ulf Leser'
p3476
F0.0625
sS'Helena Galhardas'
p3477
F0.056074766355140186
sS'Marcus Fontoura'
p3478
F0.01507537688442211
sS'Myoung-Ho Kim'
p3479
F0.051502145922746781
sS'Kosuke Hashimoto'
p3480
F0.14285714285714285
sS'Tom\xc3\xa1s Lozano-P\xc3\xa9rez'
p3481
F0.052910052910052907
sS'Hinrich Sch\xc3\xbctze'
p3482
F0.034285714285714287
sS'Sang-Hyeun Park'
p3483
F0.23999999999999999
sS'Nicole Schneider'
p3484
F0.12244897959183673
sS'A. Prasad Sistla'
p3485
F0.034782608695652174
sS'Krishna G. Kulkarni'
p3486
F0.27777777777777779
sS'Stephen M. Pizer'
p3487
F0.27777777777777779
sS'Mario Winter'
p3488
F0.20000000000000001
sS'Wilson Chan'
p3489
F0.14999999999999999
sS'Liang-Tien Chia'
p3490
F0.10344827586206896
sS'Christian Fuchs'
p3491
F0.27777777777777779
sS'Jingren Zhou'
p3492
F0.017167381974248927
sS'Phokion G. Kolaitis'
p3493
F0.0065645514223194746
sS'N. MacNaughton'
p3494
F0.080000000000000002
sS'Sylvain Bouveret'
p3495
F0.070588235294117646
sS'B. J. Curry'
p3496
F0.12
sS'Ke Yi'
p3497
F0.085106382978723402
sS'Don-Lin Yang'
p3498
F0.20000000000000001
sS'Dennis F. Kibler'
p3499
F0.011834319526627219
sS'Bernd Heisele'
p3500
F0.22222222222222221
sS'Andrew W. Fitzgibbon'
p3501
F0.095238095238095233
sS'P. Kachhwaha'
p3502
F0.24390243902439024
sS'Nikos Hardavellas'
p3503
F0.29999999999999999
sS'Jean-Fran\xc3\xa7ois Puget'
p3504
F0.22222222222222221
sS'Deepak Agarwal'
p3505
F0.027906976744186046
sS'Nancy E. Hall'
p3506
F0.12244897959183673
sS'Michael D. Morse'
p3507
F0.13432835820895522
sS'A. G. Amitha Perera'
p3508
F0.088495575221238937
sS'Gautam Bhargava'
p3509
F0.0625
sS'Usama M. Fayyad'
p3510
F0.013230429988974642
sS'Yang Xiang'
p3511
F0.11650485436893204
sS'Carson Kai-Sang Leung'
p3512
F0.031088082901554404
sS'Christopher W. Hield'
p3513
F0.23809523809523808
sS'Michael A. Greenspan'
p3514
F0.25641025641025639
sS'Maxim Gurevich'
p3515
F0.069767441860465115
sS'Xiaotong Zhang'
p3516
F0.14999999999999999
sS'Richard J. Qian'
p3517
F0.11904761904761904
sS'Byunggu Yu'
p3518
F0.22222222222222221
sS'Philippe Futtersack'
p3519
F0.22727272727272727
sS'William J. McKenna'
p3520
F0.021276595744680851
sS'Yorick Wilks'
p3521
F0.019083969465648856
sS'Hillol Kargupta'
p3522
F0.0099502487562189053
sS'Karem A. Sakallah'
p3523
F0.13636363636363635
sS'Hongyan Liu'
p3524
F0.036585365853658534
sS'Robert E. Schapire'
p3525
F0.0063025210084033615
sS'Peter Jonsson'
p3526
F0.036585365853658534
sS'Chen-Ming Hsu'
p3527
F0.10169491525423729
sS'Lucas Paletta'
p3528
F0.22222222222222221
sS'Andrey Kolobov'
p3529
F0.30303030303030304
sS'Jennifer Widom'
p3530
F0.008463165993460281
sS'Daphna Weinshall'
p3531
F0.031446540880503145
sS'Nat Ballou'
p3532
F0.24390243902439024
sS'Carlo Strapparava'
p3533
F0.049586776859504134
sS'Jenq-Foung Yao'
p3534
F0.1875
sS'Fran\xc3\xa7ois Bry'
p3535
F0.020797227036395149
sS'John D. Holt'
p3536
F0.18181818181818182
sS'Thomas Keller'
p3537
F0.5
sS'Vo Ngoc Anh'
p3538
F0.030303030303030304
sS'Nobuhisa Ueda'
p3539
F0.049586776859504134
sS'Stacy Marsella'
p3540
F0.039473684210526314
sS'Jeehee Yoon'
p3541
F0.059113300492610835
sS'Jiaya Jia'
p3542
F0.22727272727272727
sS'Prasanna Padmanabhan'
p3543
F0.045801526717557252
sS'Fosca Giannotti'
p3544
F0.023391812865497075
sS'Sang-Wook Kim'
p3545
F0.0090225563909774441
sS'Andreas G\xc3\xa4rtner'
p3546
F0.15789473684210525
sS'Keith L. Doty'
p3547
F0.11627906976744186
sS'Ryan F. Kelly'
p3548
F0.21428571428571427
sS'Eric Nowak'
p3549
F0.21739130434782608
sS'Ming-Yen Lin'
p3550
F0.09375
sS'Alfred V. Aho'
p3551
F0.069767441860465115
sS'Shuming Shi'
p3552
F0.048426150121065374
sS'Miho Ohsaki'
p3553
F0.099009900990099015
sS'Gottfried Vossen'
p3554
F0.039024390243902439
sS'Philipp Slusallek'
p3555
F0.30303030303030304
sS'Bingjun Sun'
p3556
F0.027906976744186046
sS'Mohammed Rupawalla'
p3557
F0.18867924528301888
sS'Reinhard Pichler'
p3558
F0.057142857142857141
sS'Stefanos Souldatos'
p3559
F0.038216560509554139
sS'J\xc3\xbcrgen Kr\xc3\xa4mer'
p3560
F0.026086956521739129
sS'Anoop Gupta'
p3561
F0.02575107296137339
sS'David M. Pennock'
p3562
F0.014423076923076924
sS'Michele Missikoff'
p3563
F0.11461318051575932
sS'Richard M. Keller'
p3564
F0.088235294117647065
sS'Hui Jin'
p3565
F0.089552238805970144
sS'Shurug Al-Khalifa'
p3566
F0.031578947368421054
sS'Giansalvatore Mecca'
p3567
F0.032854209445585217
sS'Roderic Collins'
p3568
F0.24390243902439024
sS'Florin Rusu'
p3569
F0.068181818181818177
sS'Kamesh Munagala'
p3570
F0.01602136181575434
sS'C\xc3\xa9lia Francisca dos Santos'
p3571
F0.11764705882352941
sS'Yong Yu'
p3572
F0.016491067338524967
sS'Walid G. Aref'
p3573
F0.0091708062667176151
sS'Gustavo Alonso'
p3574
F0.022499999999999999
sS'Claudine M. Breant'
p3575
F0.18867924528301888
sS'Pascal Felber'
p3576
F0.056074766355140186
sS'Bernhard Stegmaier'
p3577
F0.039735099337748346
sS'Brian C. Williams'
p3578
F0.0041436464088397788
sS'Hugo Rivero'
p3579
F0.35714285714285715
sS'Ming-Hao Hung'
p3580
F0.21276595744680851
sS'Gerhard Fischer'
p3581
F0.092592592592592587
sS'Marcin Zukowski'
p3582
F0.12244897959183673
sS'Thorsten Meyer'
p3583
F0.27027027027027029
sS'Raymond A. Lorie'
p3584
F0.041666666666666664
sS'Christophe Nicolas Magnan'
p3585
F0.12244897959183673
sS'William W. Cohen'
p3586
F0.0065573770491803279
sS'Sunil Podar'
p3587
F0.20000000000000001
sS'Davi de Castro Reis'
p3588
F0.078947368421052627
sS'Alice C. Parker'
p3589
F0.17857142857142858
sS'Laurent Amsaleg'
p3590
F0.19047619047619047
sS'Stratos Papadomanolakis'
p3591
F0.11009174311926606
sS'Zhuoqing Morley Mao'
p3592
F0.20000000000000001
sS'Christoph Zierl'
p3593
F0.26315789473684209
sS'Yong-Ju Lee'
p3594
F0.25
sS'Bin Lin'
p3595
F0.27027027027027029
sS'Neal E. Young'
p3596
F0.092307692307692313
sS'Songfeng Zheng'
p3597
F0.23255813953488372
sS'Maria-Esther Vidal'
p3598
F0.050847457627118647
sS'Lin Guo'
p3599
F0.093264248704663211
sS'Takanori Yamakita'
p3600
F0.15384615384615385
sS'Bin Liu'
p3601
F0.027118644067796609
sS'Jianzhong Li'
p3602
F0.009630818619582664
sS'Sergio Greco'
p3603
F0.027777777777777776
sS'Christoph Koch'
p3604
F0.014423076923076924
sS'John Collins'
p3605
F0.081081081081081086
sS'June-Suh Cho'
p3606
F0.076923076923076927
sS'Dawit Yimam Seid'
p3607
F0.096774193548387094
sS'Paolo Frasconi'
p3608
F0.054054054054054057
sS'David E. Smith'
p3609
F0.03614457831325301
sS'Ashfaq A. Khokhar'
p3610
F0.17241379310344829
sS'Ji-Woong Chang'
p3611
F0.22222222222222221
sS'Li-min Liu'
p3612
F0.2857142857142857
sS'M. Tamer \xc3\x96zsu'
p3613
F0.013086150490730643
sS'Peter D. Lauren'
p3614
F0.18518518518518517
sS'Hans-Werner Six'
p3615
F0.042692939244663386
sS'Gerhard Neumann'
p3616
F0.1111111111111111
sS'Maria E. Orlowska'
p3617
F0.014354066985645933
sS'Sameep Mehta'
p3618
F0.043859649122807015
sS'Jinbo Huang'
p3619
F0.028708133971291867
sS'Orkut Buyukkokten'
p3620
F0.11320754716981132
sS'Yuan-Chieh Chow'
p3621
F0.12
sS'Klaus Peithner'
p3622
F0.068728522336769765
sS'Edward P. F. Chan'
p3623
F0.011385199240986717
sS'Tobin J. Lehman'
p3624
F0.032894736842105261
sS'Ramana Isukapalli'
p3625
F0.12903225806451613
sS'Karl J. Lieberherr'
p3626
F0.22727272727272727
sS'Sandra Carberry'
p3627
F0.019047619047619049
sS'Marc Wichterich'
p3628
F0.073170731707317069
sS'Guozhu Dong'
p3629
F0.022291021671826627
sS'William B. Thompson'
p3630
F0.059523809523809521
sS'Edward Omiecinski'
p3631
F0.036324786324786328
sS'Nicole Alexander'
p3632
F0.33333333333333331
sS'Stan Sclaroff'
p3633
F0.033222591362126248
sS'Matthew C. Jones'
p3634
F0.22988505747126436
sS'Beth Brownholtz'
p3635
F0.10909090909090909
sS'Timothy Huang'
p3636
F0.17857142857142858
sS'Shankar Pal'
p3637
F0.061162079510703363
sS'Adam Silberstein'
p3638
F0.059880239520958084
sS'Don Vines'
p3639
F0.21739130434782608
sS'Stephen W. Barth'
p3640
F0.14285714285714285
sS'Asunci\xc3\xb3n G\xc3\xb3mez-P\xc3\xa9rez'
p3641
F0.036585365853658534
sS'Feifei Li'
p3642
F0.016528925619834711
sS'Caroline C. Hayes'
p3643
F0.085714285714285715
sS'Ying Lai'
p3644
F0.13953488372093023
sS'Jiming Liu'
p3645
F0.054545454545454543
sS'Lars Arge'
p3646
F0.05106382978723404
sS'Pinar Koksal'
p3647
F0.15151515151515152
sS'Michael Gruber'
p3648
F0.17241379310344829
sS'Alberto Martelli'
p3649
F0.17142857142857143
sS'Yong-Jin Choi'
p3650
F0.20833333333333334
sS'Marco Gori'
p3651
F0.013636363636363636
sS'Yu Xu'
p3652
F0.069767441860465115
sS'Marian S. Furman'
p3653
F0.14999999999999999
sS"Sandra D'Aguanno"
p3654
F0.073170731707317069
sS'Charles L. Isbell'
p3655
F0.096774193548387094
sS'John J. Grefenstette'
p3656
F0.15384615384615385
sS'Jessica Lin'
p3657
F0.0088495575221238937
sS'Herve Jegou'
p3658
F0.14285714285714285
sS'Bertrand Petit'
p3659
F0.20408163265306123
sS'Percy Bernedo'
p3660
F0.10344827586206896
sS'Lie Lu'
p3661
F0.27777777777777779
sS'Hans-Arno Jacobsen'
p3662
F0.026258205689277898
sS'Sven J. Dickinson'
p3663
F0.24096385542168675
sS'Liu Yang'
p3664
F0.13008130081300814
sS'Tom W. Keller'
p3665
F0.15873015873015872
sS'Aristides Gionis'
p3666
F0.019138755980861243
sS'Elli Angelopoulou'
p3667
F0.082644628099173556
sS'Peter T. Wood'
p3668
F0.05128205128205128
sS'Alin Deutsch'
p3669
F0.0094637223974763408
sS'Rajasekar Krishnamurthy'
p3670
F0.013129102844638949
sS'Rajeev Motwani'
p3671
F0.0055762081784386614
sS'Chris Engels'
p3672
F0.16666666666666666
sS'Kenichi Yamamoto'
p3673
F0.16393442622950818
sS'Asuman Dogac'
p3674
F0.10810810810810811
sS'Jim Smith'
p3675
F0.14084507042253522
sS'Hai Jin'
p3676
F0.16
sS'Rimon Barr'
p3677
F0.15789473684210525
sS'Ning Ruan'
p3678
F0.16216216216216217
sS'Hoi-Yee Hwang'
p3679
F0.17647058823529413
sS'Erik Vee'
p3680
F0.065217391304347824
sS'Masaki Oshima'
p3681
F0.30303030303030304
sS'Edward L. Robertson'
p3682
F0.15151515151515152
sS'Jimmy Ho-Man Lee'
p3683
F0.073170731707317069
sS'Ali Ismael'
p3684
F0.2857142857142857
sS'Ales Leonardis'
p3685
F0.13513513513513514
sS'Leslie Cranston'
p3686
F0.055555555555555552
sS'Christian Lebiere'
p3687
F0.18181818181818182
sS'Sean Mckeough'
p3688
F0.15384615384615385
sS'Aur\xc3\xa9lie Bugeau'
p3689
F0.22222222222222221
sS'Xiangdong He'
p3690
F0.096774193548387094
sS'Injun Choi'
p3691
F0.27777777777777779
sS'Jiaheng Lu'
p3692
F0.091954022988505746
sS'Betty Salzberg'
p3693
F0.016260162601626018
sS'Narain H. Gehani'
p3694
F0.067934782608695649
sS'Shashi Shekhar'
p3695
F0.017067494181536073
sS'Xuemin Lin'
p3696
F0.028950542822677925
sS'Eric Sodomka'
p3697
F0.040000000000000001
sS'Carlos Guestrin'
p3698
F0.013605442176870748
sS'Balaraman Ravindran'
p3699
F0.035928143712574849
sS'Bernhard Sch\xc3\xb6lkopf'
p3700
F0.01049317943336831
sS'John R. Smith'
p3701
F0.024489795918367346
sS'Andrei Voronkov'
p3702
F0.061349693251533742
sS'Robert Jedicke'
p3703
F0.13043478260869565
sS'Chavdar Botev'
p3704
F0.043321299638989168
sS'Vineel Kumar Gattu'
p3705
F0.14999999999999999
sS'Aravindan Kasthurirangan'
p3706
F0.14999999999999999
sS'Alexander Tuzhilin'
p3707
F0.01050420168067227
sS'Erick Delage'
p3708
F0.11320754716981132
sS'Yuta Choki'
p3709
F0.16393442622950818
sS'John H. Williams'
p3710
F0.2857142857142857
sS'Jonathan Siddharth'
p3711
F0.14634146341463414
sS'Haifeng Liu'
p3712
F0.026315789473684209
sS'Adriane Chapman'
p3713
F0.095238095238095233
sS'Ming Hua'
p3714
F0.03896103896103896
sS'Zhenglu Yang'
p3715
F0.037894736842105266
sS'Nigel Wu'
p3716
F0.14999999999999999
sS'Yonatan Amit'
p3717
F0.17142857142857143
sS'Bernd Neumann'
p3718
F0.091743119266055051
sS'J. Spruce Riordon'
p3719
F0.059880239520958084
sS'L. Irene Cheng'
p3720
F0.23255813953488372
sS'Hua-Jun Zeng'
p3721
F0.020562028786840301
sS'Ian Horswill'
p3722
F0.078125
sS'Zvi M. Kedem'
p3723
F0.064516129032258063
sS'Mohammed Javeed Zaki'
p3724
F0.024473147518694765
sS'G\xc3\xbcnther G\xc3\xb6rz'
p3725
F0.17857142857142858
sS'Jake K. Aggarwal'
p3726
F0.079365079365079361
sS'Geoffrey I. Webb'
p3727
F0.010452961672473868
sS'Arif Ghafoor'
p3728
F0.13513513513513514
sS'Brian Dunkel'
p3729
F0.16216216216216217
sS'Ahmed Metwally'
p3730
F0.019736842105263157
sS'Lisiane Goffaux'
p3731
F0.16129032258064516
sS'Meng Hu'
p3732
F0.1388888888888889
sS'Shravan Matthur Narayanamurthy'
p3733
F0.096774193548387094
sS'C. Mohan'
p3734
F0.011851851851851851
sS'Manjunath Narayana'
p3735
F0.25
sS'Cong Yu'
p3736
F0.01405152224824356
sS'Il-Yeol Song'
p3737
F0.051569506726457402
sS'T. N. Tan'
p3738
F0.42105263157894735
sS'Herv\xc3\xa9 Martin'
p3739
F0.24390243902439024
sS'Yun Wang'
p3740
F0.026548672566371681
sS'Jianliang Xu'
p3741
F0.029649595687331536
sS'Hyung-Ju Cho'
p3742
F0.15789473684210525
sS'Haifeng Chen'
p3743
F0.078947368421052627
sS'Thomas Schwentick'
p3744
F0.022058823529411766
sS'Williams Paquier'
p3745
F0.17857142857142858
sS'Junghoo Cho'
p3746
F0.0068104426787741201
sS'Susan Nesson'
p3747
F0.17857142857142858
sS'Scott B. Huffman'
p3748
F0.018072289156626505
sS'Ran Wolff'
p3749
F0.017291066282420751
sS'Kyuseok Shim'
p3750
F0.0090123920390536988
sS'Filippo Cacace'
p3751
F0.16393442622950818
sS'Arun Ramanujapuram'
p3752
F0.23809523809523808
sS'M. Bernardine Dias'
p3753
F0.17142857142857143
sS'Jean Ferri\xc3\xa9'
p3754
F0.061349693251533742
sS'Bernd Meyer'
p3755
F0.1111111111111111
sS'Qin Lv'
p3756
F0.073170731707317069
sS'Fei Wang'
p3757
F0.013274336283185841
sS'Saso Dzeroski'
p3758
F0.0077399380804953561
sS'Yuan-Chi Chang'
p3759
F0.027149321266968326
sS'Gregory D. Hager'
p3760
F0.067567567567567571
sS'Aravindan Raghuveer'
p3761
F0.17142857142857143
sS'Thomas C. Rakow'
p3762
F0.11235955056179775
sS'In\xc3\xaas Lynce'
p3763
F0.125
sS'Hector Gonzalez'
p3764
F0.036363636363636362
sS'Tapas Kanungo'
p3765
F0.10928961748633879
sS'Bernhard Braunm\xc3\xbcller'
p3766
F0.026315789473684209
sS'Mark Day'
p3767
F1
sS'Brock Barber'
p3768
F0.18181818181818182
sS'Seymour Ginsburg'
p3769
F0.088495575221238937
sS'Matt Coatney'
p3770
F0.17647058823529413
sS'Thomas J. Bannon'
p3771
F0.27777777777777779
sS'Arthur Zimek'
p3772
F0.045977011494252873
sS'Rachel Pottinger'
p3773
F0.043165467625899283
sS'Kok-Leong Ong'
p3774
F0.1388888888888889
sS'Susnata Basak'
p3775
F0.23076923076923078
sS'Wilburt Labio'
p3776
F0.059113300492610835
sS'Peter Pistor'
p3777
F0.02159827213822894
sS'Razvan Voicu'
p3778
F0.15789473684210525
sS'Dong Zhuang'
p3779
F0.12
sS'Peter J. Stuckey'
p3780
F0.053571428571428568
sS'Ilkka Niemel\xc3\xa4'
p3781
F0.06741573033707865
sS'Katashi Nagao'
p3782
F0.04807692307692308
sS'Xiaowei Xu'
p3783
F0.0086956521739130436
sS'Jochen Hipp'
p3784
F0.033149171270718231
sS'Hector Geffner'
p3785
F0.018749999999999999
sS'Yongcheng Li'
p3786
F0.25641025641025639
sS'Nelson Mendon\xc3\xa7a Mattos'
p3787
F0.024509803921568627
sS'C. P. Chou'
p3788
F0.24390243902439024
sS'Karen L. Myers'
p3789
F0.059999999999999998
sS'Sunil K. Sarin'
p3790
F0.078947368421052627
sS'Wagner Meira Jr.'
p3791
F0.010084033613445379
sS'Mikhail Mikhailov'
p3792
F0.20000000000000001
sS'Craig Silverstein'
p3793
F0.050000000000000003
sS'David Knapp'
p3794
F0.27777777777777779
sS'Oded Shmueli'
p3795
F0.017094017094017096
sS'Chia-Hui Chang'
p3796
F0.018181818181818181
sS'Wolfgang Nejdl'
p3797
F0.0046838407494145199
sS'Wolfgang Maass'
p3798
F0.10084033613445378
sS'Navin Kabra'
p3799
F0.065934065934065936
sS'Peter N. Belhumeur'
p3800
F0.050000000000000003
sS'Mohammed Eunus Ali'
p3801
F0.22222222222222221
sS'Shotaro Akaho'
p3802
F0.049504950495049507
sS'Susan Darling Urban'
p3803
F0.12787723785166241
sS'Flaviu Cristian'
p3804
F0.10344827586206896
sS'Nicolas Do Huu'
p3805
F0.17857142857142858
sS'K. M. Ho'
p3806
F0.066666666666666666
sS'William I. Grosky'
p3807
F0.061855670103092786
sS'Raghu Ramakrishnan'
p3808
F0.0077507825309286035
sS'Hamid Pirahesh'
p3809
F0.014285714285714285
sS'Henrik Stew\xc3\xa9nius'
p3810
F0.049180327868852458
sS'Nikos Paragios'
p3811
F0.050251256281407038
sS'Mich\xc3\xa8le Sebag'
p3812
F0.020202020202020204
sS'Chahab Nastar'
p3813
F0.10714285714285714
sS'Tok Wang Ling'
p3814
F0.026845637583892617
sS'AnHai Doan'
p3815
F0.0098146128680479828
sS'Fr\xc3\xa9d\xc3\xa9ric Jurie'
p3816
F0.23255813953488372
sS'Robert B. Fisher'
p3817
F0.10638297872340426
sS'Mikio L. Braun'
p3818
F0.14285714285714285
sS'Gerhard K\xc3\xb6stler'
p3819
F0.14084507042253522
sS'Claude Delobel'
p3820
F0.11494252873563218
sS'Luisella Reami'
p3821
F0.31578947368421051
sS'Chang Yuan'
p3822
F0.19607843137254902
sS'Stefan Sch\xc3\xb6nauer'
p3823
F0.18333333333333332
sS'Anne H. H. Ngu'
p3824
F0.041095890410958902
sS'Frank Kirchner'
p3825
F0.23255813953488372
sS'Yanchang Zhao'
p3826
F0.06741573033707865
sS'Niki Siambela'
p3827
F0.20408163265306123
sS'Prodromos Malakasiotis'
p3828
F0.16216216216216217
sS'Harumi A. Kuno'
p3829
F0.10362694300518134
sS'Fernando Machuca'
p3830
F0.21739130434782608
sS'Tyng-Luh Liu'
p3831
F0.16129032258064516
sS'Babak Falsafi'
p3832
F0.29999999999999999
sS'W. Nick Street'
p3833
F0.058394160583941604
sS'Tony F. Chan'
p3834
F0.090909090909090912
sS'Larry Wolff'
p3835
F0.17543859649122806
sS'Mong-Li Lee'
p3836
F0.017830609212481426
sS'M. Toiati'
p3837
F0.19230769230769232
sS'Simon Sheu'
p3838
F0.10169491525423729
sS'Robert Ikeda'
p3839
F0.33333333333333331
sS'Jinlin Chen'
p3840
F0.11764705882352941
sS'Ismail Seng\xc3\xb6r Alting\xc3\xb6vde'
p3841
F0.072072072072072071
sS'Kuo-Zui Lin'
p3842
F0.068965517241379309
sS'Giuseppe Amato'
p3843
F0.13636363636363635
sS'Reuven Kashi'
p3844
F0.051724137931034482
sS'Jia-bing R. Cheng'
p3845
F0.23809523809523808
sS'Michel Schneider'
p3846
F0.1032258064516129
sS'Hyuckchul Jung'
p3847
F0.20833333333333334
sS'Narayanan Shivakumar'
p3848
F0.032432432432432434
sS'Linas Bukauskas'
p3849
F0.20833333333333334
sS'Shree K. Nayar'
p3850
F0.026385224274406333
sS'Kriengkrai Porkaew'
p3851
F0.26666666666666666
sS'Fran\xc3\xa7ois Dang Ngoc'
p3852
F0.11235955056179775
sS'R. Hogan'
p3853
F0.24390243902439024
sS'Kevin S. Beyer'
p3854
F0.014527845036319613
sS'Ashit Talukder'
p3855
F0.07792207792207792
sS'Csaba Szepesv\xc3\xa1ri'
p3856
F0.015625
sS'C. Lee Giles'
p3857
F0.0092640247040658777
sS'Edward A. Fox'
p3858
F0.02197802197802198
sS'Fei Zou'
p3859
F0.14634146341463414
sS'Ambuj Mahanti'
p3860
F0.10714285714285714
sS'Hui Zhang 0002'
p3861
F0.12244897959183673
sS'Yue-Shi Lee'
p3862
F0.096774193548387094
sS'Gangqiang Xia'
p3863
F0.1875
sS'Kunal Punera'
p3864
F0.022222222222222223
sS'Yoichiro Nakakuki'
p3865
F0.057692307692307696
sS'Yizhou Lu'
p3866
F0.23809523809523808
sS'Walter A. Burkhard'
p3867
F0.059523809523809521
sS'Jing Chen'
p3868
F0.061224489795918366
sS'Daphne Koller'
p3869
F0.0024330900243309003
sS'Edward D. Lazowska'
p3870
F0.078817733990147784
sS'Steven Minton'
p3871
F0.0079936051159072742
sS'Hongli Deng'
p3872
F0.2857142857142857
sS'Christer Hulten'
p3873
F0.13333333333333333
sS'Subbu N. Subramanian'
p3874
F0.11764705882352941
sS'Andreas Grasnickel'
p3875
F0.21739130434782608
sS'Martin L. Kersten'
p3876
F0.014719411223551058
sS'Kris Ganjam'
p3877
F0.074999999999999997
sS'Victor E. Segal'
p3878
F0.29411764705882354
sS'Venky Harinarayan'
p3879
F0.07792207792207792
sS'Marianne Winslett'
p3880
F0.034849951597289451
sS'Sena Nural'
p3881
F0.15151515151515152
sS'Bo Wu'
p3882
F0.086580086580086577
sS'Slobodan Rasetic'
p3883
F0.14634146341463414
sS'Dieter Pfoser'
p3884
F0.11494252873563218
sS'Erhard Rahm'
p3885
F0.0082079343365253077
sS'Hans-J\xc3\xb6rg Schek'
p3886
F0.01086048454469507
sS'Wayne E. Moore'
p3887
F0.12
sS'Stanley Y. W. Su'
p3888
F0.019641332194705381
sS'Jidong Wang'
p3889
F0.25641025641025639
sS'Xiangji Huang'
p3890
F0.017889087656529516
sS'Tomasz Imielinski'
p3891
F0.022813688212927757
sS'Chen Wang'
p3892
F0.052941176470588235
sS'Michael Ostland'
p3893
F0.35714285714285715
sS'Stefan Wenhardt'
p3894
F0.17241379310344829
sS'Takeshi Shinohara'
p3895
F0.083333333333333329
sS'Thomas Vetter'
p3896
F0.14814814814814814
sS'Renaud Delbru'
p3897
F0.26315789473684209
sS'Tara A. Estlin'
p3898
F0.17142857142857143
sS'Michael L. Heytens'
p3899
F0.080000000000000002
sS'Faruk Polat'
p3900
F0.15384615384615385
sS'Daniel Snow'
p3901
F0.086956521739130432
sS'Jayant R. Haritsa'
p3902
F0.0053215077605321508
sS'Alessandro Sperduti'
p3903
F0.047808764940239043
sS'Jignesh M. Patel'
p3904
F0.034454470877768664
sS'M. S. Ryoo'
p3905
F0.23255813953488372
sS'Fran\xc3\xa7ois Denis'
p3906
F0.12244897959183673
sS'Panayiotis Tsaparas'
p3907
F0.017291066282420751
sS'Luciano Resende'
p3908
F0.24390243902439024
sS'Stefano Ceri'
p3909
F0.015267175572519083
sS'Stefan Zickler'
p3910
F0.27027027027027029
sS'Ziv Bar-Yossef'
p3911
F0.012903225806451613
sS'Susan B. Davidson'
p3912
F0.020257826887661142
sS'Vinay Deshpande'
p3913
F0.073170731707317069
sS'Jennifer Chu-Carroll'
p3914
F0.027522935779816515
sS'Neil Immerman'
p3915
F0.048387096774193547
sS'Isaac Cohen'
p3916
F0.08771929824561403
sS'St\xc3\xa9phane Bressan'
p3917
F0.046153846153846156
sS'Xiaofei He'
p3918
F0.0078534031413612562
sS'John Duchi'
p3919
F0.15789473684210525
sS'Wei-Shinn Ku'
p3920
F0.058823529411764705
sS'Tobias Meisen'
p3921
F0.16666666666666666
sS'Linyan Wang'
p3922
F0.1875
sS'Young-Koo Lee'
p3923
F0.095652173913043481
sS'Feng Cao'
p3924
F0.049586776859504134
s.