(dp1
S'Lizhu Zhou'
p2
F0.086956521739130432
sS'R. B. Batman'
p3
F1
sS'Shridhar Shukla'
p4
F0.5
sS'Inge Thyssens'
p5
F0.66666666666666663
sS'Robert F. Murphy'
p6
F0.66666666666666663
sS'Amit Ganesh'
p7
F1
sS'Nikos Sarkas'
p8
F0.66666666666666663
sS'Charles Levine'
p9
F1
sS'Xiaolei Li'
p10
F0.031746031746031744
sS'Stefano Spaccapietra'
p11
F0.25
sS'Ming-Yee Lai'
p12
F0.5
sS'Melliyal Annamalai'
p13
F0.33333333333333331
sS'M. Levin'
p14
F1
sS'Lei Sheng'
p15
F0.18181818181818182
sS'David K. Jefferson'
p16
F0.5
sS'Adam Bosworth'
p17
F0.40000000000000002
sS'S. Raghuram'
p18
F0.66666666666666663
sS'Francisco Mata'
p19
F1
sS'Yihong Zhao'
p20
F0.66666666666666663
sS'R. J. Nassif'
p21
F1
sS'Roy Goldman'
p22
F0.44444444444444442
sS'Himanshu Gupta'
p23
F0.22222222222222221
sS'Liang Chen'
p24
F1
sS'Roberta Cochrane'
p25
F0.15873015873015872
sS'Wei-Yin Loh'
p26
F1
sS'Gio Wiederhold'
p27
F0.047430830039525688
sS'Suman Kumar Nath'
p28
F0.80000000000000004
sS'Brian F. Cooper'
p29
F0.5
sS'Matthias Schubert'
p30
F0.039215686274509803
sS'Yuanyuan Tian'
p31
F0.66666666666666663
sS'Kevin Haas'
p32
F1
sS'Ellis E. Chang'
p33
F0.66666666666666663
sS'Phillip M. Fernandez'
p34
F0.80000000000000004
sS'Marco Mesiti'
p35
F0.33333333333333331
sS'Wook-Shin Han'
p36
F0.26666666666666666
sS'Anurag Maskey'
p37
F0.5714285714285714
sS'Georges Gardarin'
p38
F0.024193548387096774
sS'Richard Sidle'
p39
F0.5
sS'Vasilis Vassalos'
p40
F0.27027027027027029
sS'Silvia Kolmschlag'
p41
F1
sS'Mason Bendixen'
p42
F1
sS'Weining Zhang'
p43
F0.33333333333333331
sS'Linus Liang'
p44
F1
sS'Robert G. Atkinson'
p45
F1
sS'Norman M. Delisle'
p46
F1
sS'Yoonho Park'
p47
F1
sS'David Schrader'
p48
F0.80000000000000004
sS'Avigdor Gal'
p49
F0.10000000000000001
sS'Corsin Decurtins'
p50
F0.66666666666666663
sS'Kevin Smith'
p51
F1
sS'Karen Brannon'
p52
F0.66666666666666663
sS'Jeffrey D. Ullman'
p53
F0.057432432432432436
sS'Chung-Min Chen'
p54
F0.10526315789473684
sS'Greg Hope'
p55
F1
sS'Kazuyuki Shimazu'
p56
F1
sS'Wei Hong'
p57
F0.15384615384615385
sS'Mike Lefler'
p58
F1
sS'Joel Ossher'
p59
F1
sS'Christine Georgakis'
p60
F1
sS'P. D. Nanadikar'
p61
F1
sS'Daniel Mahashin'
p62
F1
sS'Rainer Gemulla'
p63
F0.42857142857142855
sS'Ralf B\xc3\xb6ttger'
p64
F1
sS'Alfred Z. Spector'
p65
F0.66666666666666663
sS'Spiridon Bakiras'
p66
F1
sS'Michael Grossniklaus'
p67
F1
sS'William Kent'
p68
F0.13043478260869565
sS'Michael Hammer'
p69
F0.32258064516129031
sS'Kien A. Hua'
p70
F0.052631578947368418
sS'Odysseas G. Tsatalos'
p71
F0.66666666666666663
sS'Luc Segoufin'
p72
F0.019417475728155338
sS'S. Muthukrishnan'
p73
F0.040816326530612242
sS'Leonore Neugebauer'
p74
F1
sS'Leonidas Fegaras'
p75
F0.38095238095238093
sS'Bradley Berg'
p76
F1
sS'Olivier Biton'
p77
F0.5
sS'Shady Elbassuoni'
p78
F0.66666666666666663
sS'Monica Scannapieco'
p79
F0.66666666666666663
sS'Pedro DeRose'
p80
F0.2857142857142857
sS'Zhenjie Zhang'
p81
F0.33333333333333331
sS'Calisto Zuzarte'
p82
F0.20588235294117646
sS'Hong Cheng'
p83
F0.070175438596491224
sS'Atul Adya'
p84
F0.37037037037037035
sS'David W. Cheung'
p85
F0.058823529411764705
sS'K. Lam'
p86
F0.5714285714285714
sS'Sumanta Chatterjee'
p87
F1
sS'Clark D. French'
p88
F0.33333333333333331
sS'Dimitris Papadias'
p89
F0.066496163682864456
sS'Kyu-Young Whang'
p90
F0.061068702290076333
sS'Robert H. Gerber'
p91
F0.33333333333333331
sS'Derick Wood'
p92
F0.33333333333333331
sS'Graham Wood'
p93
F1
sS'Florian Krebs'
p94
F0.66666666666666663
sS'Yannis Papakonstantinou'
p95
F0.073394495412844041
sS'Antonio Massari'
p96
F1
sS'Torsten Suel'
p97
F0.028985507246376812
sS'Corey Bufi'
p98
F1
sS'Ambuj Shatdal'
p99
F0.5714285714285714
sS'Svein Erik Bratsberg'
p100
F0.18181818181818182
sS'William F. Cody'
p101
F0.66666666666666663
sS'Richard Edwin Stearns'
p102
F0.66666666666666663
sS'Songyun Duan'
p103
F0.5
sS'Keng-Tai Ko'
p104
F1
sS'Mian Lu'
p105
F0.80000000000000004
sS'Shaul Dar'
p106
F0.18604651162790697
sS'Yongtai Zhu'
p107
F0.66666666666666663
sS'Richard Marciano'
p108
F1
sS'Aoying Zhou'
p109
F0.032258064516129031
sS'Sandeep Jain'
p110
F1
sS'Yutaka Matsushita'
p111
F0.66666666666666663
sS'Donovan A. Schneider'
p112
F0.21212121212121213
sS'David W. Shipman'
p113
F1
sS'Jiaheng Lu'
p114
F0.25
sS'David B. Lomet'
p115
F0.069114470842332618
sS'Thomas Zurek'
p116
F0.5
sS'Pradeep Tamma'
p117
F0.66666666666666663
sS'Robert Albright'
p118
F1
sS'Pat Hanrahan'
p119
F0.66666666666666663
sS'John Mylopoulos'
p120
F0.070588235294117646
sS'Jeffrey A. Hoffer'
p121
F0.66666666666666663
sS'Christoph Kilger'
p122
F0.66666666666666663
sS'Rona Machlin'
p123
F0.66666666666666663
sS'K. C. Lee'
p124
F0.66666666666666663
sS'Piero Fraternali'
p125
F0.30303030303030304
sS'Yossi Matias'
p126
F0.19607843137254902
sS'E. A. Unger'
p127
F1
sS'Lynn O. Wilson'
p128
F1
sS'Subhasish Mazumdar'
p129
F0.66666666666666663
sS'Laura Bright'
p130
F0.5
sS'Prakash Linga'
p131
F0.54545454545454541
sS'V. Krishnamurthy'
p132
F1
sS'Daniel J. Dietterich'
p133
F1
sS'J. P. DeBlasis'
p134
F1
sS'Dale Skeen'
p135
F0.18181818181818182
sS'Daniel S. Whelan'
p136
F1
sS'William G. Roth'
p137
F1
sS'Vladimir Bychkovsky'
p138
F1
sS'Viswanath Poosala'
p139
F0.15584415584415584
sS'Shashi K. Gadia'
p140
F0.13333333333333333
sS'Ashok Joshi'
p141
F0.18181818181818182
sS'Carrie Ballinger'
p142
F1
sS'Adrian M. Teisanu'
p143
F1
sS'Eser Kandogan'
p144
F0.66666666666666663
sS'Randal C. Nelson'
p145
F1
sS'Anno Langen'
p146
F1
sS'Bahram Niamir'
p147
F1
sS'Rahul Kapoor'
p148
F1
sS'Qingbo Zhu'
p149
F1
sS'L. Berkovich'
p150
F1
sS'Soumen Chakrabarti'
p151
F0.029556650246305417
sS'Mitch Lee'
p152
F1
sS'Vassilis Christophides'
p153
F0.2857142857142857
sS'Roger L. Haskin'
p154
F1
sS'Shaveen Garg'
p155
F0.66666666666666663
sS'Rick Keilty'
p156
F1
sS'John Thomas'
p157
F1
sS'Marc Pucci'
p158
F1
sS'Hiroshi Fujimoto'
p159
F1
sS'Brian M. Oki'
p160
F1
sS'Johann Christoph Freytag'
p161
F0.18604651162790697
sS'Calton Pu'
p162
F0.10000000000000001
sS'Pavel Velikhov'
p163
F0.5
sS'David Sun'
p164
F1
sS'Christian B\xc3\xb6hm'
p165
F0.12631578947368421
sS'Dilys Thomas'
p166
F0.40000000000000002
sS'Shan Wang'
p167
F0.22222222222222221
sS'Zhen Liu'
p168
F0.16666666666666666
sS'Rob Pike'
p169
F1
sS'Reinhard Braumandl'
p170
F0.5
sS'Jim Kupsch'
p171
F1
sS'Mihai Preda'
p172
F0.66666666666666663
sS'Rodolphe Nassif'
p173
F1
sS'Lidan Shou'
p174
F0.25
sS'Yinan Li'
p175
F1
sS'Christophe L\xc3\xa9cluse'
p176
F0.22222222222222221
sS'R. L. Guck'
p177
F1
sS'Maurice A. W. Houtsma'
p178
F0.20000000000000001
sS'Kofi Fynn'
p179
F1
sS'Panos K. Chrysanthis'
p180
F0.076923076923076927
sS'Nathan Folkert'
p181
F0.44444444444444442
sS'Jun Yang'
p182
F0.061016949152542375
sS'Sau Dan Lee'
p183
F0.33333333333333331
sS'H. Stephen Au-Yeung'
p184
F1
sS'Melissa Radzyminski'
p185
F1
sS'Jussi Myllymaki'
p186
F0.1875
sS'Susanne Englert'
p187
F0.80000000000000004
sS'Stefano Crespi-Reghizzi'
p188
F0.5714285714285714
sS'Abdullah Uz Tansel'
p189
F0.5
sS'Jun Gao'
p190
F1
sS'Alex Dekhtyar'
p191
F0.66666666666666663
sS'Baile Shi'
p192
F0.050000000000000003
sS'Shinya Fushimi'
p193
F0.66666666666666663
sS'Peter Lyngb\xc3\xa6k'
p194
F0.30769230769230771
sS'Julie Letchner'
p195
F0.66666666666666663
sS'Ibrahim Kamel'
p196
F0.095238095238095233
sS'Gaoshan Miao'
p197
F1
sS'Pekka Kostamaa'
p198
F0.66666666666666663
sS'Marco Pecorone'
p199
F1
sS'Bradford Pielech'
p200
F0.66666666666666663
sS'Abhijit Kadlag'
p201
F1
sS'Yatin P. Saraiya'
p202
F0.25
sS'Kristen LeFevre'
p203
F0.36363636363636365
sS'Yoram Kornatzky'
p204
F0.66666666666666663
sS'Ming Zhang'
p205
F0.33333333333333331
sS'Marcelo Arenas'
p206
F0.035714285714285712
sS'Kai C. Wong'
p207
F1
sS'S. L. Mehndiratta'
p208
F1
sS'Walker M. White'
p209
F0.34782608695652173
sS'Hans Albrecht Schmid'
p210
F0.66666666666666663
sS'Biswadeep Nag'
p211
F0.5
sS'Yanlei Diao'
p212
F0.20689655172413793
sS'Chung-Sheng Li'
p213
F0.23529411764705882
sS'D. Hong'
p214
F1
sS'Mirella Moura Moro'
p215
F0.18181818181818182
sS'Shawn R. Jeffery'
p216
F0.29999999999999999
sS'Jost Enderle'
p217
F0.5
sS'W. Woody Jin'
p218
F1
sS'Y. Edmund Lien'
p219
F0.18181818181818182
sS'K. Sundar Das'
p220
F0.66666666666666663
sS'Artur Klauser'
p221
F1
sS'Marc Gyssens'
p222
F0.07792207792207792
sS'Pradip Kanjamala'
p223
F1
sS'Nishant Kapoor'
p224
F0.66666666666666663
sS'Max J. Egenhofer'
p225
F0.5714285714285714
sS'Volker Markl'
p226
F0.070000000000000007
sS'Michel Kuntz'
p227
F0.66666666666666663
sS'Udo W. Lipeck'
p228
F0.40000000000000002
sS'Ameet Kini'
p229
F0.66666666666666663
sS'Michael Gillmann'
p230
F0.26666666666666666
sS'Mauro Negri'
p231
F1
sS'David Clutter'
p232
F1
sS'Ralf M\xc3\xbchlberger'
p233
F1
sS'P. E. Jones Jr.'
p234
F1
sS'Heinz Uphoff'
p235
F0.66666666666666663
sS'Jonathan E. Cook'
p236
F0.80000000000000004
sS'Sriram Raghavan'
p237
F0.14285714285714285
sS'Jan S. Rellermeyer'
p238
F1
sS'Tong Zhou'
p239
F0.66666666666666663
sS'J. Wang'
p240
F0.66666666666666663
sS'Giorgio Gianforme'
p241
F1
sS'Masum Serazi'
p242
F1
sS'Lars Brenna'
p243
F1
sS'Kazuhiko Ushio'
p244
F0.66666666666666663
sS'Wei Sun'
p245
F0.5
sS'Brian A. Nixon'
p246
F0.33333333333333331
sS'Wesley W. Chu'
p247
F0.030769230769230771
sS'Hongyan Li'
p248
F1
sS'Pin-Kwang Eng'
p249
F0.2857142857142857
sS'Kjetil N\xc3\xb8rv\xc3\xa5g'
p250
F0.33333333333333331
sS'Francis Upton IV'
p251
F1
sS'Yenel Yildirim'
p252
F0.80000000000000004
sS'Jing Su'
p253
F1
sS'Anisoara Nica'
p254
F0.5
sS'Yanjun Lou'
p255
F1
sS'Curt Ellmann'
p256
F0.29999999999999999
sS'Emmanuel Waller'
p257
F0.18181818181818182
sS'Sergey Melnik'
p258
F0.22641509433962265
sS'Itaru Nishizawa'
p259
F0.80000000000000004
sS'Jonathan Klein'
p260
F1
sS'John H. Christiansen'
p261
F1
sS'Richard Anderson'
p262
F1
sS'Jingdan Zhang'
p263
F0.66666666666666663
sS'Elad Verbin'
p264
F1
sS'Frank Olken'
p265
F0.11428571428571428
sS'Riccardo Rosati'
p266
F0.033333333333333333
sS'Mikio Aoyama'
p267
F1
sS'Divesh Srivastava'
p268
F0.023217247097844111
sS'David T. Liu'
p269
F0.66666666666666663
sS'Jean L. Bell'
p270
F0.80000000000000004
sS'Alon Itai'
p271
F1
sS'Akhil Kumar'
p272
F0.40000000000000002
sS'Min-Jae Lee'
p273
F0.25
sS'Alexandros Labrinidis'
p274
F0.16
sS'Kamar Aulakh'
p275
F1
sS'King-Lup Liu'
p276
F0.17142857142857143
sS'Avraham Leff'
p277
F1
sS'Gaurav Bhalotia'
p278
F0.5
sS'Joachim Thomas II'
p279
F0.66666666666666663
sS'O. A. Daini'
p280
F1
sS'Barbara Liskov'
p281
F0.44444444444444442
sS'C. H. Chen'
p282
F0.66666666666666663
sS'Deok-Hwan Kim'
p283
F0.66666666666666663
sS'Julia Stoyanovich'
p284
F0.2857142857142857
sS'Vuk Ercegovac'
p285
F0.2857142857142857
sS'Ravi Krishnamurthy'
p286
F0.083333333333333329
sS'Claire Morpain'
p287
F1
sS'Anirban Majumder'
p288
F0.5
sS'Stefano Paraboschi'
p289
F0.18181818181818182
sS'Giedrius Slivinskas'
p290
F0.2857142857142857
sS'Ting Chen'
p291
F0.2857142857142857
sS'Dongqing Yang'
p292
F0.29999999999999999
sS'Tali Yatzkar-Haham'
p293
F0.66666666666666663
sS'Sandeepan Banerjee'
p294
F0.25
sS'Stanley B. Zdonik'
p295
F0.038338658146964855
sS'Sumiyasu Yamamoto'
p296
F0.66666666666666663
sS'Y. C. Tay'
p297
F0.066666666666666666
sS'Stephen Kelley'
p298
F0.66666666666666663
sS'Benjamin Taskar'
p299
F0.071428571428571425
sS'Mujde Pamuk'
p300
F1
sS'Roberto J. Bayardo Jr.'
p301
F0.14634146341463414
sS'Chin-Wan Chung'
p302
F0.21818181818181817
sS'Ravi S. Sandhu'
p303
F1
sS'David A. Brant'
p304
F0.40000000000000002
sS'Carl-Christian Kanne'
p305
F0.25
sS'Byoung Dae Park'
p306
F0.66666666666666663
sS'Vassilis Papadimos'
p307
F0.80000000000000004
sS'Gerald Kreissig'
p308
F1
sS'Jing Michelle Liu'
p309
F1
sS'Donald Swartwout'
p310
F1
sS'Robert McCann'
p311
F0.2857142857142857
sS'Ewing L. Lusk'
p312
F1
sS'Hao He'
p313
F0.18181818181818182
sS'Xinbiao Zhou'
p314
F1
sS'Fred Carter'
p315
F1
sS'Sanju K. Bansal'
p316
F1
sS'Rong Zhang'
p317
F0.2857142857142857
sS'Raja Velu'
p318
F1
sS'Alazel Acheson'
p319
F1
sS'Matthew J. Weinstein'
p320
F1
sS'Akrivi Vlachou'
p321
F0.33333333333333331
sS'Anat Eyal'
p322
F0.1111111111111111
sS'Junjie Guo'
p323
F1
sS'Eran Palmon'
p324
F0.66666666666666663
sS'Georgia Koutrika'
p325
F0.095238095238095233
sS'Edi Fontana'
p326
F1
sS'Rui Chen'
p327
F1
sS'Mario A. Nascimento'
p328
F0.20000000000000001
sS'Jo-Mei Chang'
p329
F0.66666666666666663
sS'Vagelis Hristidis'
p330
F0.063157894736842107
sS'S. Sudarshan'
p331
F0.051587301587301584
sS'Lory D. Molesky'
p332
F1
sS'Nicolas Bruno'
p333
F0.17499999999999999
sS'Yin Yang'
p334
F0.25
sS'Peter C. Lockemann'
p335
F0.19047619047619047
sS'Seung-won Hwang'
p336
F0.42857142857142855
sS'Gokce Laleci'
p337
F1
sS'Sandra Heiler'
p338
F0.20000000000000001
sS'Yixiu Huang'
p339
F0.33333333333333331
sS'Maria Goveas'
p340
F1
sS'Takeshi Tokuyama'
p341
F0.36363636363636365
sS'Sang Ho Lee'
p342
F0.5
sS'Elke A. Rundensteiner'
p343
F0.031354983202687571
sS'D. G. Shin'
p344
F0.5
sS'Bin Li'
p345
F0.66666666666666663
sS'Guangshun Chen'
p346
F0.80000000000000004
sS'Arvola Chan'
p347
F0.36363636363636365
sS'Yuping Yang'
p348
F0.66666666666666663
sS'Holger Kache'
p349
F0.5
sS'Philip L. Lehman'
p350
F0.66666666666666663
sS'Niels Nes'
p351
F0.18181818181818182
sS'Tie Zhong'
p352
F1
sS'Yue Zhuge'
p353
F0.2857142857142857
sS'Phillip B. Gibbons'
p354
F0.13017751479289941
sS'Ralf Schenkel'
p355
F0.040816326530612242
sS'Karthikeyan Ramasamy'
p356
F0.40000000000000002
sS'Julien Gaugaz'
p357
F1
sS'Cheong Youn'
p358
F1
sS'Michael A. Olson'
p359
F0.18181818181818182
sS'Pavel A. Exarkhopoulo'
p360
F1
sS'Elena Ferrari'
p361
F0.16666666666666666
sS'Xiang Zhang'
p362
F0.13333333333333333
sS'Bernd Sch\xc3\xb6ner'
p363
F1
sS'Mich\xc3\xa8le Cart'
p364
F0.40000000000000002
sS'Joseph A. Konstan'
p365
F0.22222222222222221
sS'Yaron Engel'
p366
F1
sS'Jutai Zhou'
p367
F1
sS'Mehdi Benzine'
p368
F0.66666666666666663
sS'Tomasz Ksiezyk'
p369
F0.66666666666666663
sS'Steven Berson'
p370
F0.80000000000000004
sS'Huaiyu Zhu'
p371
F0.40000000000000002
sS'Donald D. Chamberlin'
p372
F0.21818181818181817
sS'Gadi Entin'
p373
F0.66666666666666663
sS'Zo\xc3\xa9 Lacroix'
p374
F0.2857142857142857
sS'Rajesh Manjrekar'
p375
F1
sS'Kian Win Ong'
p376
F1
sS'R\xc3\xa9my Amouroux'
p377
F1
sS'Andrew Therber'
p378
F1
sS'Harald Sammer'
p379
F1
sS'Timothy Malkemus'
p380
F0.16666666666666666
sS'Christian Convey'
p381
F0.66666666666666663
sS'Alexander J. Pasik'
p382
F1
sS'Xiaofang Zhou'
p383
F0.053333333333333337
sS'Hal Berenson'
p384
F1
sS'Teresa Mah'
p385
F0.5
sS'Feng Shao'
p386
F0.5714285714285714
sS'Michel Goraczko'
p387
F1
sS'Mikhail J. Atallah'
p388
F0.14285714285714285
sS'Maurizio Lenzerini'
p389
F0.034482758620689655
sS'Philip Yen-Tang Chang'
p390
F1
sS'C. Erwin'
p391
F1
sS'David Maier'
p392
F0.087209302325581398
sS'Jing Lu'
p393
F0.66666666666666663
sS'Giuseppe Sindoni'
p394
F0.5
sS'Nikunj Raghuvanshi'
p395
F1
sS'Gilles Fecteau'
p396
F0.66666666666666663
sS'Dmitri Asonov'
p397
F0.66666666666666663
sS'J. Miller'
p398
F0.66666666666666663
sS'Nagavamsi Ponnekanti'
p399
F0.5
sS'Todd C. Mowry'
p400
F0.29999999999999999
sS'Jason McHugh'
p401
F0.33333333333333331
sS'Wayne Davison'
p402
F1
sS'Yiu-Kai Ng'
p403
F0.2857142857142857
sS'Subbu N. Subramanian'
p404
F0.16666666666666666
sS'Ling-Ling Yan'
p405
F1
sS'Sirish Chandrasekaran'
p406
F0.40000000000000002
sS'Nick Cercone'
p407
F0.020618556701030927
sS'Douglas M. Bates'
p408
F1
sS'Emiran Curtmola'
p409
F0.80000000000000004
sS'Mema Roussopoulos'
p410
F0.66666666666666663
sS'Richard J. Waldinger'
p411
F0.10526315789473684
sS'Su Chen'
p412
F1
sS'Amal Perera'
p413
F1
sS'Nabil Hachem'
p414
F0.66666666666666663
sS'M. Hossein Sheikh Attar'
p415
F1
sS'Ion Muslea'
p416
F0.15384615384615385
sS'Ramakrishnan Srikant'
p417
F0.082901554404145081
sS'Vasiliy Malakhov'
p418
F1
sS'Stefano Trisolini'
p419
F0.66666666666666663
sS'Ekow J. Otoo'
p420
F0.095238095238095233
sS'Chang Luo'
p421
F0.40000000000000002
sS'Leonard D. Shapiro'
p422
F0.5714285714285714
sS'Arvind Thiagarajan'
p423
F0.66666666666666663
sS'Shiping Huang'
p424
F1
sS'K. Sel\xc3\xa7uk Candan'
p425
F0.075630252100840331
sS'B. R. Badrinath'
p426
F0.21052631578947367
sS'S. Weiner'
p427
F1
sS'Marc Friedman'
p428
F0.66666666666666663
sS'Bradford W. Wade'
p429
F1
sS'Andrea J. Borr'
p430
F0.33333333333333331
sS'Seth J. White'
p431
F0.44444444444444442
sS'Lois M. L. Delcambre'
p432
F0.028985507246376812
sS'David Beech'
p433
F0.25
sS'Juliana Freire'
p434
F0.1111111111111111
sS'Martin Stanley'
p435
F1
sS'Athman Bouguettaya'
p436
F0.25
sS'Salvatore J. Stolfo'
p437
F0.052631578947368418
sS'Bei Yu'
p438
F0.33333333333333331
sS'Fan Yang 0002'
p439
F0.46153846153846156
sS'Martin Andersson'
p440
F1
sS'Leland L. Beck'
p441
F1
sS'Keith McKay'
p442
F1
sS'Anindya Datta'
p443
F0.18181818181818182
sS'P. Krishnan'
p444
F0.66666666666666663
sS'Reed M. Meseck'
p445
F1
sS'Darrell Shane'
p446
F1
sS'David DeHaan'
p447
F0.59999999999999998
sS'Denilson Barbosa'
p448
F0.36363636363636365
sS'Dinkar Sitaram'
p449
F1
sS'Ramana Yerneni'
p450
F0.3125
sS'K. W. Lodge'
p451
F1
sS'Aydan R. Yumerefendi'
p452
F1
sS'Nimrod Megiddo'
p453
F0.33333333333333331
sS'Peter Zabback'
p454
F0.42105263157894735
sS'Amit P. Sheth'
p455
F0.031645569620253167
sS'Satish Ramakrishnan'
p456
F1
sS'Hans Diel'
p457
F1
sS'S. Musukula'
p458
F1
sS'Roberto Acerbis'
p459
F1
sS'Ke Wang'
p460
F0.016216216216216217
sS'Kent Laver'
p461
F1
sS'Sivasankaran Chandrasekar'
p462
F1
sS'William Shapiro'
p463
F0.66666666666666663
sS'Qiuhui Yuan'
p464
F1
sS'Uwe Deppisch'
p465
F0.5
sS'Carl Woolf'
p466
F1
sS'Zarka Cvetanovic'
p467
F1
sS'Maria Luisa Sapino'
p468
F0.42105263157894735
sS'Kyriacos Pavlou'
p469
F1
sS'Kheng Guan Goh'
p470
F0.66666666666666663
sS'M. V. Ramakrishna'
p471
F0.25
sS'Louiqa Raschid'
p472
F0.098360655737704916
sS'Thomas R. Gross'
p473
F0.66666666666666663
sS'Yongjian Fu'
p474
F0.40000000000000002
sS'Ronghao Zhuang'
p475
F1
sS'Etzard Stolte'
p476
F0.33333333333333331
sS'J. Stenoien'
p477
F1
sS'P. Kachhwaha'
p478
F1
sS'Yannis Kotidis'
p479
F0.091503267973856203
sS'Yen-Yu Chen'
p480
F0.33333333333333331
sS'Dean S. Daniels'
p481
F1
sS'Yiwen Yin'
p482
F0.5
sS'Carlo Zaniolo'
p483
F0.040816326530612242
sS'Jayant Sharma'
p484
F1
sS'Kazi A. Zaman'
p485
F1
sS'Hong Hai Do'
p486
F0.40000000000000002
sS'Kamalakar Karlapalem'
p487
F0.125
sS'Simon J. Gibbs'
p488
F0.5714285714285714
sS'Thorsten Ehm'
p489
F1
sS'Cecilia Magdalena Procopiuc'
p490
F0.80000000000000004
sS'Ihab F. Ilyas'
p491
F0.10810810810810811
sS'Curtis P. Kolovson'
p492
F0.66666666666666663
sS'Laurent Amsaleg'
p493
F0.5
sS'Ren\xc3\xa9e J. Miller'
p494
F0.081081081081081086
sS'Frank Naeymi-Rad'
p495
F1
sS'Marco Dario'
p496
F1
sS'Yong Li'
p497
F0.66666666666666663
sS'Osmar R. Za\xc3\xafane'
p498
F0.033898305084745763
sS'Ishan Chaudhuri'
p499
F0.66666666666666663
sS'Maria E. Orlowska'
p500
F0.046511627906976744
sS'W. Bruce Croft'
p501
F0.00048484848484848484
sS'Ali R. Hurson'
p502
F0.2857142857142857
sS'William L. Gettys'
p503
F1
sS'Hussien Aly'
p504
F0.66666666666666663
sS'Maya Ramanath'
p505
F0.125
sS'Greg Pape'
p506
F1
sS'Jonathan Goldstein'
p507
F0.22857142857142856
sS'Ana Lelescu'
p508
F1
sS'Ouri Wolfson'
p509
F0.080000000000000002
sS'Chris Jermaine'
p510
F0.10256410256410256
sS'Dean S. Thompson'
p511
F1
sS'Richard S. Brice'
p512
F0.59999999999999998
sS'Wai-Shing Ho'
p513
F1
sS"P. Dell'Orco"
p514
F0.5
sS'Wolfgang Lehner'
p515
F0.11009174311926606
sS'Elias Frentzos'
p516
F0.66666666666666663
sS'Aaron Elkiss'
p517
F1
sS'Jos\xc3\xa9 A. Blakeley'
p518
F0.15384615384615385
sS'Don Sakahara'
p519
F1
sS'Bill Gallagher'
p520
F1
sS'Aya Ozeri'
p521
F1
sS'Christopher Stoughton'
p522
F1
sS'Peter J. Weinberger'
p523
F0.80000000000000004
sS'Pradnya Karbhari'
p524
F1
sS'Michael J. Cahill'
p525
F0.66666666666666663
sS'Jian Pei'
p526
F0.03292181069958848
sS'Ray Shea'
p527
F0.80000000000000004
sS'Alban Galland'
p528
F1
sS'Stelios Gamvroulas'
p529
F1
sS'Leana Golubchik'
p530
F0.66666666666666663
sS'Gordon Smith'
p531
F1
sS'Benny Souder'
p532
F1
sS'Dallan Quass'
p533
F0.42105263157894735
sS'Greg Meredith'
p534
F1
sS'Yeh-Heng Sheng'
p535
F0.80000000000000004
sS'Dhaval Shah'
p536
F1
sS'Matthew Denny'
p537
F0.5714285714285714
sS'M. Strobel'
p538
F1
sS'Andreas Weininger'
p539
F0.80000000000000004
sS'Christian Koenig'
p540
F1
sS'Manolis M. Tsangaris'
p541
F0.66666666666666663
sS'Gianfranco R. Putzolu'
p542
F0.66666666666666663
sS'Brandon Lloyd'
p543
F1
sS'Hansj\xc3\xb6rg Zeller'
p544
F0.2857142857142857
sS'Abhinav Gupta'
p545
F0.40000000000000002
sS'L. Anderson'
p546
F1
sS'T. H. Johnson'
p547
F1
sS'Francis Y. L. Chin'
p548
F0.5
sS'Tianyi Wu'
p549
F0.5
sS'Rajendran M. Sivasankaran'
p550
F1
sS'Bernhard Seeger'
p551
F0.071174377224199295
sS'Krishna P. Mikkilineni'
p552
F0.2857142857142857
sS'Subramanian Arumugam'
p553
F0.54545454545454541
sS'John Forsyth'
p554
F1
sS'\xc3\x98ystein Torbj\xc3\xb8rnsen'
p555
F0.1111111111111111
sS'Samir Mathur'
p556
F1
sS'Richard Bigelow'
p557
F1
sS'Abdelsalam Helal'
p558
F0.18181818181818182
sS'Joachim Sch\xc3\xbc'
p559
F0.33333333333333331
sS'Weining Qian'
p560
F0.066666666666666666
sS'Xiaoyang Sean Wang'
p561
F0.13636363636363635
sS'S. Muralidhar'
p562
F1
sS'Matthew Morgenstern'
p563
F0.090909090909090912
sS'Tian Zhang'
p564
F0.40000000000000002
sS'Julio C. Navas'
p565
F1
sS'Witold Litwin'
p566
F0.059259259259259262
sS'Yi Luo'
p567
F0.66666666666666663
sS'Mohamed A. Soliman'
p568
F0.2857142857142857
sS'Linda Ness'
p569
F0.66666666666666663
sS'Ann Ellis Bandurski'
p570
F1
sS'Gung-Wei Chirn'
p571
F1
sS'R. Yan'
p572
F1
sS'Gerhard Weikum'
p573
F0.02243829468960359
sS'Beat Signer'
p574
F0.66666666666666663
sS'Jeong-Hyon Hwang'
p575
F0.18181818181818182
sS'Christof Bornh\xc3\xb6vd'
p576
F0.2857142857142857
sS'Edith Cohen'
p577
F0.16666666666666666
sS'Adina Crainiceanu'
p578
F0.59999999999999998
sS'David Mutchler'
p579
F0.40000000000000002
sS'Qingguang Cui'
p580
F1
sS'Peter M. D. Gray'
p581
F0.33333333333333331
sS'Charly Kleissner'
p582
F1
sS'Yingguang Li'
p583
F0.66666666666666663
sS'Praveen Paritosh'
p584
F1
sS'M. R. Brown'
p585
F1
sS'Mark A. Woyna'
p586
F1
sS'John Nauman'
p587
F1
sS'Masaru Kitsuregawa'
p588
F0.042194092827004218
sS'Tam Minh Tran'
p589
F0.40000000000000002
sS'Eliezer Levy'
p590
F0.40000000000000002
sS'Tamara G. Kolda'
p591
F0.2857142857142857
sS'Chris Olston'
p592
F0.31578947368421051
sS'The Tandem Performance Group'
p593
F1
sS'Florian Waas'
p594
F0.19047619047619047
sS'Jianliang Xu'
p595
F0.078431372549019607
sS"William O'Connell"
p596
F0.18604651162790697
sS'Isamu Yoshida'
p597
F1
sS'Nicola Onose'
p598
F0.36363636363636365
sS'Jerry Baulier'
p599
F0.33333333333333331
sS'Susan Uren'
p600
F1
sS'Iyer N. Subramanian'
p601
F0.40000000000000002
sS'Warren Shen'
p602
F0.086956521739130432
sS'A. Singer'
p603
F1
sS'Omran A. Bukhres'
p604
F0.29999999999999999
sS'Hong Su'
p605
F0.22222222222222221
sS'David Cohen'
p606
F1
sS'Dragutin Petkovic'
p607
F0.2857142857142857
sS'Andrew Tomkins'
p608
F0.0099502487562189053
sS'Ramaswamy Hariharan'
p609
F0.66666666666666663
sS'Maxim Kormilitsin'
p610
F1
sS'Quang Hieu Vu'
p611
F0.40000000000000002
sS'Barbara T. Blaustein'
p612
F0.18181818181818182
sS'Rick Greer'
p613
F0.66666666666666663
sS'Kurt A. Shoens'
p614
F0.40000000000000002
sS'Tova Milo'
p615
F0.042145593869731802
sS'H. T. Kung'
p616
F0.44444444444444442
sS'Sudhir Rao'
p617
F1
sS'Thomas G. Price'
p618
F1
sS'Nan Wang'
p619
F0.66666666666666663
sS'James P. Callan'
p620
F0.0033840947546531302
sS'Christoph Bussler'
p621
F0.5714285714285714
sS'Michael R. Genesereth'
p622
F0.018181818181818181
sS'Dieter Schoenbauer'
p623
F1
sS'Giorgio Terracina'
p624
F0.66666666666666663
sS'Wei Tang'
p625
F0.5
sS'Peixiang Zhao'
p626
F0.66666666666666663
sS'Jie-Bing Yu'
p627
F0.40000000000000002
sS'Zaixian Xie'
p628
F1
sS'H.-R. Yang'
p629
F1
sS'James J. Lu'
p630
F0.5
sS'Vineet Sinha'
p631
F1
sS'Yi Deng'
p632
F1
sS'Yuqing Wu'
p633
F0.20689655172413793
sS'James A. Behymer'
p634
F1
sS'Yi Chen'
p635
F0.10909090909090909
sS'Jan Flokstra'
p636
F0.40000000000000002
sS'Bruno Roustant'
p637
F1
sS'Arie Segev'
p638
F0.020618556701030927
sS'John F. Burger'
p639
F1
sS'Charles D. Cranor'
p640
F0.80000000000000004
sS'Werner Kie\xc3\x9fling'
p641
F0.095238095238095233
sS'Rob Pezzoli'
p642
F1
sS'Robert Y. Hou'
p643
F1
sS'John M. McGann'
p644
F1
sS'Vanja Josifovski'
p645
F0.060606060606060608
sS'Alessandro Masci'
p646
F0.66666666666666663
sS'Kan Hu'
p647
F1
sS'Gene Fuh'
p648
F0.5
sS'Yuan Gao'
p649
F1
sS'Daniele Nardi'
p650
F0.18181818181818182
sS'Tak W. Yan'
p651
F0.2857142857142857
sS'Yaxiao Song'
p652
F1
sS'Allan Packer'
p653
F1
sS'Giri Nair'
p654
F1
sS'Jia-bing R. Cheng'
p655
F1
sS'Sean C. Rhea'
p656
F0.66666666666666663
sS'Rajiv Bhateja'
p657
F1
sS'Satish Thatte'
p658
F1
sS'Naphtali Rishe'
p659
F0.055555555555555552
sS'Angela Bonifati'
p660
F0.13333333333333333
sS'Douglas Stott Parker Jr.'
p661
F0.068965517241379309
sS'Yan Qi 0002'
p662
F0.54545454545454541
sS'Fox Development Team'
p663
F1
sS'James Rucker'
p664
F1
sS'Piotr Indyk'
p665
F0.20000000000000001
sS'Albert Yu'
p666
F1
sS'Sonny Han Seng Chee'
p667
F1
sS'Murty Valiveti'
p668
F1
sS'Peter A. Boncz'
p669
F0.051948051948051951
sS'Amy Unruh'
p670
F0.66666666666666663
sS'F. Andersen'
p671
F0.66666666666666663
sS'Curtis E. Dyreson'
p672
F0.13333333333333333
sS'Michael H. B\xc3\xb6hlen'
p673
F0.02564102564102564
sS'Yubin Bao'
p674
F1
sS'Paolo Cappellari'
p675
F0.5
sS'Govind Kabra'
p676
F0.66666666666666663
sS'Charu C. Aggarwal'
p677
F0.018404907975460124
sS'Marco Ruzzi'
p678
F0.66666666666666663
sS'Suzanne M. Embury'
p679
F0.2857142857142857
sS'Gert Brettlecker'
p680
F1
sS'Andreas Paepcke'
p681
F0.25
sS'Jianjun Chen'
p682
F0.66666666666666663
sS'John R. Friedrich'
p683
F1
sS'Mitch Cherniack'
p684
F0.093023255813953487
sS'Bo Ling'
p685
F1
sS'M. K. Siu'
p686
F0.66666666666666663
sS'Younkyung Cha Kang'
p687
F0.80000000000000004
sS'Sanjay Ghemawat'
p688
F1
sS'M. Theodoridou'
p689
F1
sS'Dennis G. Severance'
p690
F0.66666666666666663
sS'Jessica Qu'
p691
F1
sS'Ullas Nambiar'
p692
F0.15384615384615385
sS'Vlad Gorelik'
p693
F1
sS'Qiong Luo'
p694
F0.16666666666666666
sS'Daniel Pepper'
p695
F1
sS'Kang Zhang'
p696
F0.25
sS'Asaf Adi'
p697
F0.66666666666666663
sS'Dietmar Nolte'
p698
F1
sS'David E. Irwin'
p699
F1
sS'Markus Pilman'
p700
F1
sS'Ramez Elmasri'
p701
F0.018518518518518517
sS'Chaitanya K. Baru'
p702
F0.40000000000000002
sS'Huy T. Vo'
p703
F0.80000000000000004
sS'Maksims Volkovs'
p704
F1
sS'Bo Xu'
p705
F0.22222222222222221
sS'Eamonn J. Keogh'
p706
F0.0040650406504065045
sS'David A. Patterson'
p707
F0.66666666666666663
sS'Mehmet Ercan Nergiz'
p708
F0.66666666666666663
sS'Erik Vee'
p709
F0.15384615384615385
sS'Scott T. Leutenegger'
p710
F0.25
sS'J. Richard Swenson'
p711
F0.80000000000000004
sS'Brett Berlin'
p712
F1
sS'Nagender Bandi'
p713
F0.5
sS'Munindar P. Singh'
p714
F0.04878048780487805
sS'Rimma V. Nehme'
p715
F0.5
sS'Sudarshan S. Chawathe'
p716
F0.19047619047619047
sS'Wesley P. Melling'
p717
F1
sS'Kevin Y. Yip'
p718
F0.5
sS'Thierry Coupaye'
p719
F0.5
sS'Peter Z. Kunszt'
p720
F0.80000000000000004
sS'Lei Chen 0003'
p721
F0.18181818181818182
sS'Lei Chen 0002'
p722
F0.0625
sS'Jochen Doppelhammer'
p723
F1
sS'Barbara Catania'
p724
F0.15384615384615385
sS'C. R. Spath'
p725
F0.66666666666666663
sS'Ankur Jain'
p726
F0.66666666666666663
sS'D. Sivakumar'
p727
F0.10256410256410256
sS'Hubert Naacke'
p728
F0.66666666666666663
sS'Karim Hussein'
p729
F1
sS'Zhexuan Song'
p730
F1
sS'Gregory Dorman'
p731
F1
sS'Sam Chamberlain'
p732
F0.16666666666666666
sS'David E. Bakkom'
p733
F1
sS'Nipun Agarwal'
p734
F0.2857142857142857
sS'Paradise Team'
p735
F1
sS'Imad Rahal'
p736
F0.66666666666666663
sS'Donald Cohen'
p737
F0.20000000000000001
sS'Xin Luna Dong'
p738
F0.66666666666666663
sS'King-sun Fu'
p739
F0.5
sS'Sanjay Agrawal'
p740
F0.3125
sS'Ashutosh Singh'
p741
F0.5714285714285714
sS'Balaji Rathakrishnan'
p742
F0.66666666666666663
sS'Amnon Meyers'
p743
F0.66666666666666663
sS'Alexandr Andoni'
p744
F1
sS'Muralidhar Krishnaprasad'
p745
F0.29629629629629628
sS'Matthias Hampel'
p746
F1
sS'Allen Luniewski'
p747
F0.2857142857142857
sS'H\xc3\xa9ctor Corrada Bravo'
p748
F1
sS'Linas Bukauskas'
p749
F0.66666666666666663
sS'Samuel DeFazio'
p750
F0.10000000000000001
sS'Marian H. Nodine'
p751
F0.5
sS'Yiming Li'
p752
F1
sS'Sukhamay Kundu'
p753
F0.5
sS'Ankur Panchbudhe'
p754
F0.66666666666666663
sS'W. Bradley Rubenstein'
p755
F0.59999999999999998
sS'Giuseppe Santucci'
p756
F0.80000000000000004
sS'Esther Dyson'
p757
F1
sS'Venkatesh Ganti'
p758
F0.1111111111111111
sS'Ralf Rantzau'
p759
F0.15384615384615385
sS'Agma J. M. Traina'
p760
F0.10000000000000001
sS'Brigitte Kr\xc3\xb6ll'
p761
F1
sS'Alan J. Demers'
p762
F0.26415094339622641
sS'Inderpal Narang'
p763
F0.16438356164383561
sS'Marc Brette'
p764
F1
sS'Paulo J. F. Carreira'
p765
F1
sS'Tim King'
p766
F1
sS'Jing Qiu'
p767
F1
sS'Jos\xc3\xa9 Luis Ambite'
p768
F0.40000000000000002
sS'Philippe Selo'
p769
F1
sS'Nabil R. Adam'
p770
F0.33333333333333331
sS'Bugra Gedik'
p771
F0.11428571428571428
sS'Qicheng Ma'
p772
F0.66666666666666663
sS'Erwin Leonardi'
p773
F0.33333333333333331
sS'Joseph Rajkumar'
p774
F1
sS'Stefan Striel'
p775
F1
sS'Antonin Guttman'
p776
F1
sS'Aziz Ait-Braham'
p777
F1
sS'J. Banerjee'
p778
F1
sS'D. J. Moore'
p779
F1
sS'Benson Margulies'
p780
F1
sS'Georg Gottlob'
p781
F0.0049140049140049139
sS'Shalom Tsur'
p782
F0.19607843137254902
sS'Praveen Seshadri'
p783
F0.125
sS'KianSing Ng'
p784
F1
sS'Richard Swagerman'
p785
F0.33333333333333331
sS'Arnaud Sahuguet'
p786
F0.25806451612903225
sS'Markus M. Breunig'
p787
F0.36363636363636365
sS'J. Paul Tremblay'
p788
F1
sS'Hans-Werner Six'
p789
F0.16
sS'John Biggs'
p790
F1
sS'Sakti Pramanik'
p791
F0.16666666666666666
sS'Anand Narayanan'
p792
F1
sS'Craig A. Knoblock'
p793
F0.044117647058823532
sS'Hiroyuki Kitagawa'
p794
F0.11764705882352941
sS'Wai Fu Fung'
p795
F1
sS'Dayou Zhou'
p796
F0.66666666666666663
sS'Bongki Moon'
p797
F0.10714285714285714
sS'Bettina Kemme'
p798
F0.22222222222222221
sS'Sharad Mehrotra'
p799
F0.070707070707070704
sS'H. Werner'
p800
F1
sS'Hao Xu'
p801
F0.33333333333333331
sS'Robert J. Brunner'
p802
F1
sS'Henrique Paques'
p803
F0.66666666666666663
sS'Marc Descollonges'
p804
F1
sS'Jeffrey Xu Yu'
p805
F0.0040816326530612249
sS'Zheng Huang'
p806
F0.66666666666666663
sS'Erik Riedel'
p807
F0.66666666666666663
sS'Quoc Vu'
p808
F0.2857142857142857
sS'Els Laenens'
p809
F1
sS'Ira Assent'
p810
F0.1111111111111111
sS'Peter M. Schwarz'
p811
F0.32000000000000001
sS'G. Barbara Demo'
p812
F0.2857142857142857
sS'Christopher R. Palmer'
p813
F0.15384615384615385
sS'Claudio Bettini'
p814
F0.25
sS'Henk M. Blanken'
p815
F0.07407407407407407
sS'Tiziana Catarci'
p816
F0.66666666666666663
sS'Jian Tang'
p817
F0.11764705882352941
sS'Herman J. Haverkort'
p818
F1
sS'Zhimao Guo'
p819
F1
sS'Daniel J. Abadi'
p820
F0.15873015873015872
sS'Kathleen Fisher'
p821
F0.66666666666666663
sS'Jan Chomicki'
p822
F0.028169014084507043
sS'Windsor W. Hsu'
p823
F0.66666666666666663
sS'Hongga Li'
p824
F1
sS'Ramachandran Venkatesh'
p825
F1
sS'Ashish Gupta'
p826
F0.14999999999999999
sS'Mark Lin'
p827
F1
sS'Simonas Saltenis'
p828
F0.13333333333333333
sS'Hanan Samet'
p829
F0.094117647058823528
sS'Eric Lo'
p830
F0.40000000000000002
sS'Shore Team'
p831
F1
sS'Neoklis Polyzotis'
p832
F0.18181818181818182
sS'Oege de Moor'
p833
F0.66666666666666663
sS'C. Robert Carlson'
p834
F0.66666666666666663
sS'Arnab Nandi'
p835
F0.5714285714285714
sS'Hyoung-Joo Kim'
p836
F0.16666666666666666
sS'Ion Tim Ieong'
p837
F0.66666666666666663
sS'Jim Melton'
p838
F0.66666666666666663
sS'Paris C. Kanellakis'
p839
F0.049689440993788817
sS'Andreas Koeller'
p840
F0.40000000000000002
sS'Srinivasa Eddula'
p841
F1
sS'Jason Tsong-Li Wang'
p842
F0.21052631578947367
sS'Nabil Kamel'
p843
F0.66666666666666663
sS'Richard Jensen'
p844
F1
sS'Rubi Boim'
p845
F1
sS'M. A. Merzbacher'
p846
F1
sS'Hai He'
p847
F0.25
sS'Jeffrey Olkin'
p848
F1
sS'Claude Delobel'
p849
F0.26666666666666666
sS'Tei-Wei Kuo'
p850
F0.66666666666666663
sS'Peter Dadam'
p851
F0.083333333333333329
sS'Pankaj K. Agarwal'
p852
F0.26666666666666666
sS'Mark Daly'
p853
F1
sS'Arjun Dasgupta'
p854
F1
sS'Bingsheng He'
p855
F0.5
sS'Yifeng Zheng'
p856
F0.125
sS'Lily Hendra'
p857
F0.66666666666666663
sS'J. Geyer'
p858
F1
sS'S. Joshi'
p859
F0.66666666666666663
sS'Ebru Ersan'
p860
F1
sS'Sara Cohen'
p861
F0.055555555555555552
sS'Ricardo Jim\xc3\xa9nez-Peris'
p862
F0.66666666666666663
sS'Serge Abiteboul'
p863
F0.027548209366391185
sS'Jang Ho Park'
p864
F0.66666666666666663
sS'Markus Schneider'
p865
F0.5
sS'Liangyou Chen'
p866
F1
sS'Evaggelia Pitoura'
p867
F0.038461538461538464
sS'Fei Xu'
p868
F0.66666666666666663
sS'Timos K. Sellis'
p869
F0.10191082802547771
sS'Chun Zhang'
p870
F0.38095238095238093
sS'Alan Fekete'
p871
F0.095238095238095233
sS'Sheila Tejada'
p872
F0.5
sS'Marvin S. Schwarz'
p873
F1
sS'Dennis McLeod'
p874
F0.10810810810810811
sS'Boris E. Polyachenko'
p875
F1
sS'Yildiray Kabak'
p876
F1
sS'Maryann E. Martone'
p877
F0.25
sS'Pradeep Shenoy'
p878
F0.36363636363636365
sS'Mohammad Asgarian'
p879
F1
sS'Masatoshi Yoshikawa'
p880
F0.10526315789473684
sS'Lyublena Antova'
p881
F0.16666666666666666
sS'Daniel Keren'
p882
F0.40000000000000002
sS'David Hanley'
p883
F1
sS'Christoph Quix'
p884
F0.66666666666666663
sS'Shobhit Mathur'
p885
F1
sS'Prashant J. Shenoy'
p886
F0.15384615384615385
sS'Prasanna Ganesan'
p887
F0.15384615384615385
sS'Peter Widmayer'
p888
F0.096774193548387094
sS'Gunter Michalk'
p889
F1
sS'Satinder Singh'
p890
F0.5
sS'Karel Youssefi'
p891
F0.66666666666666663
sS'B. J. Liu'
p892
F1
sS'Jae-Jun Hwang'
p893
F1
sS'Chengyu Sun'
p894
F0.25
sS'Vadim Katz'
p895
F1
sS'Ping Wu'
p896
F0.15384615384615385
sS'Wensheng Wu'
p897
F0.2857142857142857
sS'Dietmar R\xc3\xb6sner'
p898
F1
sS'Jon A. Solworth'
p899
F0.80000000000000004
sS'Joshua Spiegel'
p900
F0.33333333333333331
sS'Ming-Chien Shan'
p901
F0.05128205128205128
sS'Keiji Oenoki'
p902
F1
sS'Vittorio Castelli'
p903
F0.26666666666666666
sS'Ehud Gudes'
p904
F0.13333333333333333
sS'Honguk Woo'
p905
F0.80000000000000004
sS'Andrew C. Myers'
p906
F1
sS'James G. Mullen'
p907
F1
sS'Anthony C. Klug'
p908
F0.2857142857142857
sS'Murray Edelberg'
p909
F1
sS'H. V. Jagadish'
p910
F0.020577760189948554
sS'Yuan-Fang Wang'
p911
F1
sS'Robert Shectman'
p912
F1
sS'Pedro Jos\xc3\xa9 Marr\xc3\xb3n'
p913
F0.5
sS'Ze-Nian Li'
p914
F0.66666666666666663
sS'Ali Dasdan'
p915
F0.66666666666666663
sS'Yu Cao'
p916
F1
sS'Antonio Turtur'
p917
F0.66666666666666663
sS'Kurt P. Brown'
p918
F0.33333333333333331
sS'Xiaoling Wang'
p919
F0.5
sS'Harry K. T. Wong'
p920
F0.11428571428571428
sS'Gultekin \xc3\x96zsoyoglu'
p921
F0.10000000000000001
sS'Yann Vi\xc3\xa9mont'
p922
F0.66666666666666663
sS'Andreas Dehmel'
p923
F0.66666666666666663
sS'Haim Kaplan'
p924
F0.33333333333333331
sS'Helmut Krieger'
p925
F1
sS'Erich Marth'
p926
F1
sS'Gad Ariav'
p927
F0.80000000000000004
sS'Ashraf Aboulnaga'
p928
F0.12698412698412698
sS'Bin Wang'
p929
F0.080000000000000002
sS'Ambuj Goyal'
p930
F0.80000000000000004
sS'Shelly Guo'
p931
F1
sS'Jacob Stein'
p932
F0.5
sS'Annie W. Shum'
p933
F1
sS'Paul Cotton'
p934
F1
sS'David G. Bell'
p935
F1
sS'Claude Frasson'
p936
F1
sS'Alexander Markowetz'
p937
F0.66666666666666663
sS'Josef Burger'
p938
F0.33333333333333331
sS'Babis Theodoulidis'
p939
F1
sS'Oliver M. Duschka'
p940
F0.33333333333333331
sS'Qin Zhang'
p941
F1
sS'Cevdet Dengi'
p942
F1
sS'Gregory Cobena'
p943
F0.36363636363636365
sS'Lise Getoor'
p944
F0.11320754716981132
sS'Vikas Arora'
p945
F0.40000000000000002
sS'Kyoji Hirata'
p946
F0.5
sS'Chin-Chen Chang'
p947
F0.5
sS'Sujoe Bose'
p948
F0.66666666666666663
sS'D. Swartwout'
p949
F0.80000000000000004
sS'Andrew Turpin'
p950
F0.02247191011235955
sS'Amarnath Gupta'
p951
F0.05128205128205128
sS'Jonathan Ashley'
p952
F1
sS'Qing Wang'
p953
F1
sS'David W. Stemple'
p954
F0.29999999999999999
sS'Torsten Grabs'
p955
F0.10526315789473684
sS'Tanuja Joshi'
p956
F0.66666666666666663
sS'Mihael Ankerst'
p957
F0.2857142857142857
sS'Reza Akbarinia'
p958
F0.66666666666666663
sS'Shu Lin'
p959
F0.66666666666666663
sS'Nicolas Dieu'
p960
F1
sS'Assaf Schuster'
p961
F0.25
sS'Leonid Reyzin'
p962
F1
sS'Doron Rotem'
p963
F0.024539877300613498
sS'Yitzhak Mandelbaum'
p964
F1
sS'Qiong Fang'
p965
F1
sS'Lizhuang Zhao'
p966
F0.66666666666666663
sS'Flip Korn'
p967
F0.09580838323353294
sS'F. Ho'
p968
F1
sS'Eric Simon'
p969
F0.07575757575757576
sS'Ronald J. Brachman'
p970
F0.083333333333333329
sS'Thierry Schang'
p971
F1
sS'Umeshwar Dayal'
p972
F0.032069970845481049
sS'Steve Ford'
p973
F0.66666666666666663
sS'Mark Little'
p974
F1
sS'Arsany Sawires'
p975
F0.66666666666666663
sS'Anastasia Ailamaki'
p976
F1
sS'Peter Honeyman'
p977
F0.66666666666666663
sS'Bishwaranjan Bhattacharjee'
p978
F0.07407407407407407
sS'John H. Leuchner'
p979
F0.66666666666666663
sS'Cuiping Li'
p980
F0.40000000000000002
sS'J\xc3\xbcrgen G\xc3\xbcnauer'
p981
F0.66666666666666663
sS'Sherif Sakr'
p982
F0.66666666666666663
sS'Feng Tian'
p983
F0.44444444444444442
sS'Sridhar Rajagopalan'
p984
F0.12121212121212122
sS'Yi-Leh Wu'
p985
F0.36363636363636365
sS'Anthony J. Bonner'
p986
F0.083333333333333329
sS'Robin Dhamankar'
p987
F0.66666666666666663
sS'Joel E. Richardson'
p988
F0.30769230769230771
sS'C. J. Date'
p989
F0.19047619047619047
sS'Wei Han'
p990
F0.32000000000000001
sS'Raymond T. Ng'
p991
F0.048648648648648651
sS'Joseph M. Joy'
p992
F1
sS'Abhijit Pol'
p993
F0.38095238095238093
sS'T. M. Murali'
p994
F1
sS'Paula Furtado'
p995
F0.2857142857142857
sS'Wynne Hsu'
p996
F0.014925373134328358
sS'Vineet Rao'
p997
F1
sS'Venkateshwaran Venkataramani'
p998
F1
sS'Milind Joshi'
p999
F0.5714285714285714
sS'Marie-Anne Neimat'
p1000
F0.40000000000000002
sS'L. S. Schneider'
p1001
F0.66666666666666663
sS'Fernando V\xc3\xa9lez'
p1002
F0.40000000000000002
sS'Jacek Skowronek'
p1003
F1
sS'Yiming Ma'
p1004
F0.028169014084507043
sS'Michael Gesmann'
p1005
F0.66666666666666663
sS'Magesh Jayapandian'
p1006
F0.5
sS'Sean Lyndersay'
p1007
F1
sS'Malcolm Colton'
p1008
F1
sS'Atsuyuki Morishima'
p1009
F0.40000000000000002
sS'Arnon Rosenthal'
p1010
F0.11267605633802817
sS'George Andrianopoulos'
p1011
F1
sS'Myung-Jae Park'
p1012
F1
sS'Edgar H. Sibley'
p1013
F0.66666666666666663
sS'Xifeng Yan'
p1014
F0.064935064935064929
sS'Javier Arroyo'
p1015
F1
sS'Jing Yang'
p1016
F1
sS'M. Ganesh'
p1017
F0.66666666666666663
sS'Irina Rozenbaum'
p1018
F0.5
sS'William E. Weihl'
p1019
F0.18181818181818182
sS'Thomas Neumann'
p1020
F0.054054054054054057
sS'Manish Bhide'
p1021
F0.16666666666666666
sS'William C. McGee'
p1022
F1
sS'Sophie Cluet'
p1023
F0.16091954022988506
sS'Michael Averbuch'
p1024
F1
sS'Witold Lipski Jr.'
p1025
F0.2608695652173913
sS'Sunil Chakkappen'
p1026
F1
sS'Vibby Gottemukkala'
p1027
F0.2857142857142857
sS'Hong-Tai Chou'
p1028
F0.13333333333333333
sS'Jong Soo Park'
p1029
F0.44444444444444442
sS'Peter A. Tucker'
p1030
F0.66666666666666663
sS'Debra E. VanderMeer'
p1031
F0.40000000000000002
sS'Girish Patel'
p1032
F1
sS'Stacia De Lima'
p1033
F1
sS'Gray Clossman'
p1034
F1
sS'Dirk Van Gucht'
p1035
F0.028571428571428571
sS'Gerome Miklau'
p1036
F0.5714285714285714
sS'Jeff Dozier'
p1037
F1
sS'Like Gao'
p1038
F0.5
sS'William J. McIver Jr.'
p1039
F1
sS'Kamesh Munagala'
p1040
F0.11764705882352941
sS'Paolo Merialdo'
p1041
F0.20689655172413793
sS'Raymond A. Lorie'
p1042
F0.23076923076923078
sS'Bartosz Nowicki'
p1043
F1
sS'Yue Huang'
p1044
F1
sS'Xiaoyu Wang'
p1045
F0.5
sS'Garret Swart'
p1046
F0.5
sS'Sourashis Roy'
p1047
F0.33333333333333331
sS'Mayur Datar'
p1048
F0.19047619047619047
sS'Peter McIlroy'
p1049
F0.66666666666666663
sS'Asit Dan'
p1050
F0.12903225806451613
sS'Asuman Dogac'
p1051
F0.36363636363636365
sS'Yu-Wang Wang'
p1052
F0.66666666666666663
sS'Reynold Cheng'
p1053
F0.040816326530612242
sS'Michalis Vazirgiannis'
p1054
F0.032258064516129031
sS'David Goldberg'
p1055
F1
sS'B. Berkowitz'
p1056
F1
sS'Kenneth J. Goldman'
p1057
F1
sS'Xin Zhou'
p1058
F0.33333333333333331
sS'Gerald Kiernan'
p1059
F0.2857142857142857
sS'Liying Sui'
p1060
F0.40000000000000002
sS'Mohammed Javeed Zaki'
p1061
F0.0072202166064981952
sS'Bruce M. Maggs'
p1062
F0.66666666666666663
sS'Ahmed Metwally'
p1063
F0.16666666666666666
sS'Michael Kifer'
p1064
F0.088235294117647065
sS'Leo R. Gotlieb'
p1065
F1
sS'Dmitry Lychagin'
p1066
F0.5
sS'Amit Marathe'
p1067
F0.40000000000000002
sS'Richard Pledereder'
p1068
F1
sS'Helen M. Thomas'
p1069
F0.2857142857142857
sS'Thomas J. Bannon'
p1070
F1
sS'Nigel Jacobs'
p1071
F1
sS'Margaret H. Eich'
p1072
F0.33333333333333331
sS'Justin Rosenstein'
p1073
F1
sS'Alfred G. Dale'
p1074
F0.36363636363636365
sS'Ralf Hartmut G\xc3\xbcting'
p1075
F0.2857142857142857
sS'Haimin Lee'
p1076
F1
sS'A. Timothy Maness'
p1077
F1
sS'Mukul K. Sinha'
p1078
F1
sS'Kevin Chen'
p1079
F1
sS'Eileen Tien Lin'
p1080
F0.80000000000000004
sS'Sam Haradhvala'
p1081
F1
sS'Konstantinos F. Sagonas'
p1082
F0.80000000000000004
sS'William Alexander'
p1083
F0.80000000000000004
sS'Marta Pati\xc3\xb1o-Mart\xc3\xadnez'
p1084
F0.66666666666666663
sS'Evan Welbourne'
p1085
F1
sS'Roger Lueder'
p1086
F0.66666666666666663
sS'Liam Relihan'
p1087
F1
sS'Gang Zhang'
p1088
F1
sS'Hans-J\xc3\xb6rg Schek'
p1089
F0.023255813953488372
sS'Alfonso F. Cardenas'
p1090
F0.18181818181818182
sS'Hubert Siu'
p1091
F1
sS'Giuseppe Psaila'
p1092
F0.20000000000000001
sS'Richard King'
p1093
F1
sS'Gjergji Kasneci'
p1094
F0.25
sS'Chinya V. Ravishankar'
p1095
F0.17142857142857143
sS'Mayank Bawa'
p1096
F0.21052631578947367
sS'Kumar V. Vadaparty'
p1097
F0.40000000000000002
sS'Colette Rolland'
p1098
F0.10000000000000001
sS'Sitaram Lanka'
p1099
F0.25
sS'Gavin M. Bierman'
p1100
F0.80000000000000004
sS'Loretta Auvil'
p1101
F0.66666666666666663
sS'Wen-Te K. Lin'
p1102
F0.44444444444444442
sS'Matthias Brantner'
p1103
F0.26666666666666666
sS'Karen Ward'
p1104
F0.66666666666666663
sS'Jean-Fran\xc3\xa7ois Pons'
p1105
F0.33333333333333331
sS'Bryan Smith'
p1106
F1
sS'Yang Li'
p1107
F0.66666666666666663
sS'Kaizhong Zhang'
p1108
F0.30769230769230771
sS'Abraham Bernstein'
p1109
F0.40000000000000002
sS'David M. Arnow'
p1110
F0.66666666666666663
sS'Esther Pacitti'
p1111
F0.33333333333333331
sS'Jung-Hwan Oh'
p1112
F0.5714285714285714
sS'Karl Aberer'
p1113
F0.019801980198019802
sS'Honggang Zhang'
p1114
F1
sS'Mathias Weske'
p1115
F1
sS'Richard A. Ganski'
p1116
F1
sS'Jenny Chiang'
p1117
F0.44444444444444442
sS'Lukasz Golab'
p1118
F0.25
sS'Sherri Kennamer'
p1119
F1
sS'Amr El Abbadi'
p1120
F0.017610062893081761
sS'Ariel Fuxman'
p1121
F0.16666666666666666
sS'Fenglin Liao'
p1122
F0.80000000000000004
sS'Kari Alho'
p1123
F1
sS'Alexandros Biliris'
p1124
F0.15789473684210525
sS'Nikos Pelekis'
p1125
F0.66666666666666663
sS'Rafi Ahmed'
p1126
F0.2857142857142857
sS'Weiyi Meng'
p1127
F0.04975124378109453
sS'Yann Dupont'
p1128
F1
sS'Janet L. Wiener'
p1129
F0.13636363636363635
sS'Sadayuki Hikita'
p1130
F1
sS'Nisheeth Shrivastava'
p1131
F0.16666666666666666
sS'Alin Dobra'
p1132
F0.2857142857142857
sS'Jens-Peter Dittrich'
p1133
F0.085106382978723402
sS'Mehrdad Jahangiri'
p1134
F0.80000000000000004
sS'Shihui Zheng'
p1135
F0.2857142857142857
sS'Fr\xc3\xa9d\xc3\xa9ric Gingras'
p1136
F0.66666666666666663
sS'Hiroki Shirato'
p1137
F1
sS'Mandy Goldner'
p1138
F1
sS'Zhen Hua Liu'
p1139
F0.32000000000000001
sS'Guy Ferran'
p1140
F0.66666666666666663
sS'Ahmed Ayad'
p1141
F0.66666666666666663
sS'Chong Leng Goh'
p1142
F0.66666666666666663
sS'Yasuhiko Morimoto'
p1143
F0.21052631578947367
sS'Scott Shenker'
p1144
F0.18181818181818182
sS'Dimitris Sacharidis'
p1145
F0.2857142857142857
sS'Oguzhan Ozmen'
p1146
F1
sS"Jun'ichi Tatemura"
p1147
F0.22222222222222221
sS'Peter Baumann'
p1148
F0.10526315789473684
sS'Sae Hwang'
p1149
F1
sS'David A. Maluf'
p1150
F0.66666666666666663
sS'Tyson Condie'
p1151
F0.66666666666666663
sS'Chu Yee Liau'
p1152
F1
sS'Kiyoshi Ono'
p1153
F0.66666666666666663
sS'Pedro Celis'
p1154
F0.5
sS'Elliot K. Kolodner'
p1155
F0.80000000000000004
sS'King-Ip Lin'
p1156
F0.20000000000000001
sS'Anthony I. Wasserman'
p1157
F0.66666666666666663
sS'Jorge F. Garza'
p1158
F0.66666666666666663
sS'Srikanta J. Bedathur'
p1159
F0.20000000000000001
sS'Ravi Murthy'
p1160
F0.26666666666666666
sS'Tim Cheng'
p1161
F1
sS'Gideon Schaller'
p1162
F0.44444444444444442
sS'John Miles Smith'
p1163
F0.18181818181818182
sS'Erich J. Neuhold'
p1164
F0.024096385542168676
sS'Amber van Wyk'
p1165
F1
sS'Shilpa Lawande'
p1166
F0.80000000000000004
sS'Lisa Amini'
p1167
F0.5
sS'Frank E. Levine'
p1168
F1
sS'Chris Clifton'
p1169
F0.096774193548387094
sS'Kelly A. Lyons'
p1170
F0.66666666666666663
sS'Ming-Syan Chen'
p1171
F0.010869565217391304
sS'Lori Alperin Resnick'
p1172
F0.66666666666666663
sS'Gregory C. Sharp'
p1173
F0.66666666666666663
sS'Nicholas Gerner'
p1174
F0.66666666666666663
sS'Mary F. Fernandez'
p1175
F0.66666666666666663
sS'Amol Deshpande'
p1176
F0.094488188976377951
sS'Daniel A. Keim'
p1177
F0.14432989690721648
sS'Jun-Ki Min'
p1178
F0.66666666666666663
sS'Jianyong Wang'
p1179
F0.039215686274509803
sS'Prasan Roy'
p1180
F0.20000000000000001
sS'Mark Stokrp'
p1181
F1
sS'Bonnie Vaughan'
p1182
F1
sS'Theo H\xc3\xa4rder'
p1183
F0.11320754716981132
sS'Riccardo Torlone'
p1184
F0.26666666666666666
sS'Ganesh Ramesh'
p1185
F0.40000000000000002
sS'Joel L. Wolf'
p1186
F0.21052631578947367
sS'Neeta Prasad'
p1187
F1
sS'Todd J. Green'
p1188
F0.20000000000000001
sS'David Nagle'
p1189
F1
sS'Gerd Heber'
p1190
F1
sS'Arnold L. Rosenberg'
p1191
F0.66666666666666663
sS'Utkarsh Srivastava'
p1192
F0.13636363636363635
sS'Daniel T. Schuh'
p1193
F1
sS'Robert S. Kaplan'
p1194
F1
sS'Laura E. Grit'
p1195
F1
sS'T. H. Merrett'
p1196
F0.16666666666666666
sS'Bin Cao'
p1197
F0.5
sS'Zhengdao Xu'
p1198
F0.5
sS'Ying-Lin Chen'
p1199
F0.66666666666666663
sS'N. Natarajan'
p1200
F0.66666666666666663
sS'Ueli M. Maurer'
p1201
F1
sS'G\xc3\xb6khan \xc3\x96zhan'
p1202
F1
sS'Peter Kunath'
p1203
F0.040816326530612242
sS'Panos Vassiliadis'
p1204
F0.15384615384615385
sS'Haibo Hu'
p1205
F0.40000000000000002
sS'Pratap Khedkar'
p1206
F1
sS'Rohan Angrish'
p1207
F1
sS'Waqar Hasan'
p1208
F0.35294117647058826
sS'Sheldon J. Finkelstein'
p1209
F0.42105263157894735
sS'Chee Chin Low'
p1210
F1
sS'Pamela Drew'
p1211
F0.40000000000000002
sS'Xiang Liu'
p1212
F1
sS'Ray Suorsa'
p1213
F1
sS'Stephan Jacobs'
p1214
F1
sS'Radu Sion'
p1215
F0.043478260869565216
sS'Michael Caruso'
p1216
F1
sS'Srinivasan Seshan'
p1217
F0.66666666666666663
sS'Alexander Aiken'
p1218
F0.54545454545454541
sS'Nadir Weibel'
p1219
F1
sS'Mehran Sahami'
p1220
F0.050000000000000003
sS'J\xc3\xbcrgen Koch'
p1221
F1
sS'Filipp I. Andon'
p1222
F1
sS'Gary E. Herman'
p1223
F1
sS'Kyle Buza'
p1224
F1
sS'Yoshinori Hara'
p1225
F0.40000000000000002
sS'Seok-Won Seong'
p1226
F1
sS'Mario Schkolnick'
p1227
F0.2857142857142857
sS'Ajay Gupta'
p1228
F0.14285714285714285
sS'Alex Pang'
p1229
F0.80000000000000004
sS'David E. Culler'
p1230
F1
sS'Prabhakar Raghavan'
p1231
F0.050632911392405063
sS'Keunjoo Kwon'
p1232
F0.66666666666666663
sS'Bruce A. Shapiro'
p1233
F0.2857142857142857
sS'Meichun Hsu'
p1234
F0.068965517241379309
sS'Donald R. Deutsch'
p1235
F0.66666666666666663
sS'Minyoung Ra'
p1236
F1
sS'Cosmin Cremarenco'
p1237
F0.66666666666666663
sS'James Frew'
p1238
F1
sS'Mary F. Fern\xc3\xa1ndez'
p1239
F0.19444444444444445
sS'Muthiah M. Muthaia Chettiar'
p1240
F1
sS'Donald Carney'
p1241
F0.20000000000000001
sS'Claudia Plant'
p1242
F0.33333333333333331
sS'Mary Roth'
p1243
F0.66666666666666663
sS'Michail Vlachos'
p1244
F0.028985507246376812
sS'Andreas Geppert'
p1245
F1
sS'Dennis Shasha'
p1246
F0.062809917355371905
sS'Moez Chaabouni'
p1247
F1
sS'Daniel P. Miranker'
p1248
F0.046511627906976744
sS'Susanne E. Hambrusch'
p1249
F0.25
sS'Allen Miu'
p1250
F1
sS'Sriram Padmanabhan'
p1251
F0.07792207792207792
sS'Evimaria Terzi'
p1252
F0.12121212121212122
sS'Philip Bohannon'
p1253
F0.10666666666666667
sS'Anant Jhingran'
p1254
F0.18867924528301888
sS'Mehdi T. Harandi'
p1255
F0.5
sS"Elizabeth J. O'Neil"
p1256
F0.35714285714285715
sS'Demet Aksoy'
p1257
F0.66666666666666663
sS'Mosfeq Rashid'
p1258
F0.80000000000000004
sS'Oktie Hassanzadeh'
p1259
F1
sS'David Scott Warren'
p1260
F0.27906976744186046
sS'Aaron M. Tenenbaum'
p1261
F0.66666666666666663
sS'Sai Wu'
p1262
F1
sS'Norbert G. Lenz'
p1263
F1
sS'M. Hatoun'
p1264
F1
sS'Erdogan Dogdu'
p1265
F0.66666666666666663
sS'Ron Weiss'
p1266
F0.5
sS'Christophe de Maindreville'
p1267
F0.17391304347826086
sS'Alistair Moffat'
p1268
F0.0065573770491803279
sS'Victor M. Markowitz'
p1269
F0.023529411764705882
sS'Yun Chen'
p1270
F0.66666666666666663
sS'Jia Chen'
p1271
F0.66666666666666663
sS'Gregory Karvounarakis'
p1272
F0.5
sS'Anand Rajaraman'
p1273
F0.1951219512195122
sS'Badrish Chandramouli'
p1274
F0.5
sS'Christian Fiegel'
p1275
F1
sS'Kostas Lillis'
p1276
F1
sS'Christoph von Praun'
p1277
F1
sS'Fenghua Yu'
p1278
F1
sS'Irini Fundulaki'
p1279
F0.10526315789473684
sS'Kaushik Dutta'
p1280
F0.44444444444444442
sS'George M. Bryan'
p1281
F1
sS'Wen-Chi Hou'
p1282
F0.14999999999999999
sS'Craig Wong'
p1283
F1
sS'Edward Chan'
p1284
F1
sS'Florian Matthes'
p1285
F0.2857142857142857
sS'Benjamin Reed'
p1286
F0.66666666666666663
sS'Timothy Griffin'
p1287
F0.54545454545454541
sS'Yannis Velegrakis'
p1288
F0.047619047619047616
sS'Allison L. Holloway'
p1289
F1
sS'Hyo-Sang Lim'
p1290
F1
sS'Eric Chu'
p1291
F0.66666666666666663
sS'Richard C. T. Lee'
p1292
F0.16666666666666666
sS'Ju-Hong Lee'
p1293
F0.5
sS'Yutaka Kimura'
p1294
F1
sS'Scott E. Hudson'
p1295
F0.66666666666666663
sS'Mehmet Altinel'
p1296
F0.2857142857142857
sS'Michael Gebhardt'
p1297
F1
sS'Daniel J. Rosenkrantz'
p1298
F0.31578947368421051
sS'Letizia Tanca'
p1299
F0.40000000000000002
sS'Alok Kirpal'
p1300
F0.5
sS'Dimitra Vista'
p1301
F0.2857142857142857
sS'G\xc3\xadsli R. Hjaltason'
p1302
F0.5
sS'Markus Wawryniuk'
p1303
F0.5
sS'Sema Mancuhan'
p1304
F1
sS'Alex Gorelik'
p1305
F1
sS'Garth A. Gibson'
p1306
F0.66666666666666663
sS'Du Q. Huynh'
p1307
F0.66666666666666663
sS'Mohana Krishna Lakhamraju'
p1308
F1
sS'Robert L. Grossman'
p1309
F0.19047619047619047
sS'Xiaojian Zhao'
p1310
F0.66666666666666663
sS'Minghua Zhang'
p1311
F0.25
sS'Herbert Kuss'
p1312
F1
sS'Ke Yi'
p1313
F0.22222222222222221
sS'Valter Crescenzi'
p1314
F0.2857142857142857
sS'James W. Welch'
p1315
F0.80000000000000004
sS'Balakrishna R. Iyer'
p1316
F0.064102564102564097
sS'Sangho Lee'
p1317
F1
sS'Zutao Zhu'
p1318
F1
sS'Jessica M. Phan'
p1319
F1
sS'Tito Pena'
p1320
F1
sS'eva K\xc3\xbchn'
p1321
F0.40000000000000002
sS'Reijo Sulonen'
p1322
F1
sS'Edyta Kalka'
p1323
F1
sS'Philippe Richard'
p1324
F0.36363636363636365
sS'Scott L. Vandenberg'
p1325
F0.66666666666666663
sS'Hasan M. Jamil'
p1326
F0.26666666666666666
sS'Iosif Lazaridis'
p1327
F0.40000000000000002
sS'Kazuhiko Mogi'
p1328
F0.66666666666666663
sS'Soumitra Sengupta'
p1329
F1
sS'Mechtild Wallrath'
p1330
F0.33333333333333331
sS'Hua Zhu'
p1331
F0.5
sS'Rob Gerritsen'
p1332
F0.44444444444444442
sS'Mahadevan Subramanian'
p1333
F0.66666666666666663
sS'Frank G. Halasz'
p1334
F1
sS'Christoph Sturm'
p1335
F0.33333333333333331
sS'Jianwen Su'
p1336
F0.045112781954887216
sS'Daniel R. Ries'
p1337
F0.29999999999999999
sS'Alexander S. Szalay'
p1338
F0.80000000000000004
sS'Georg Walch'
p1339
F0.44444444444444442
sS'Wolfgang Wonner'
p1340
F0.66666666666666663
sS'Karl Dias'
p1341
F0.33333333333333331
sS'Luis Leopoldo Perez'
p1342
F0.80000000000000004
sS'Leong Hou U'
p1343
F1
sS'Anil Bahuman'
p1344
F1
sS'Karin Kailing'
p1345
F0.14285714285714285
sS'Daniel Kifer'
p1346
F0.14285714285714285
sS'Rob Golding'
p1347
F1
sS'J. Eliot B. Moss'
p1348
F0.25
sS'Antonio Alfredo Ferreira Loureiro'
p1349
F0.66666666666666663
sS'Don Mitchusson'
p1350
F1
sS'Achim Kraiss'
p1351
F0.125
sS'Randolph Chung'
p1352
F1
sS'Raghavan Komondoor'
p1353
F1
sS'Shiori Betzler'
p1354
F1
sS'Alexander Hinneburg'
p1355
F0.19047619047619047
sS'Lucy Garnett'
p1356
F1
sS'Sang-Woo Kim'
p1357
F1
sS'Ion Stoica'
p1358
F0.42857142857142855
sS'Ming C. Lin'
p1359
F1
sS'Sunita Sarawagi'
p1360
F0.047430830039525688
sS'Nathan Burkhart'
p1361
F1
sS'Y. S. Jiang'
p1362
F1
sS'Soumyadeb Mitra'
p1363
F0.2857142857142857
sS'Xin Zhang'
p1364
F0.25
sS'Edison Ting'
p1365
F0.66666666666666663
sS'Klemens B\xc3\xb6hm'
p1366
F0.025974025974025976
sS'Yusuf Tambag'
p1367
F0.66666666666666663
sS'Brad Adelberg'
p1368
F0.40000000000000002
sS'Takeshi Fukuda'
p1369
F0.18181818181818182
sS'Ashish Kumar Gupta'
p1370
F0.66666666666666663
sS'Spiros Papadimitriou'
p1371
F0.040816326530612242
sS'Ji-Rong Wen'
p1372
F0.012500000000000001
sS'Gang Gou'
p1373
F0.59999999999999998
sS'Carter Butts'
p1374
F1
sS'Raymond K. Neff'
p1375
F1
sS'Munir Cochinwala'
p1376
F0.13333333333333333
sS'S. Seshadri'
p1377
F0.10416666666666667
sS'Dave Clements'
p1378
F1
sS'Michael W. Godfrey'
p1379
F1
sS'Maurice van Keulen'
p1380
F0.21052631578947367
sS'Richard Hull'
p1381
F0.059071729957805907
sS'Tian Xia'
p1382
F0.0625
sS'Zografoula Vagena'
p1383
F0.25
sS'Patrick C. Fischer'
p1384
F0.2857142857142857
sS'Beysim Sezgin'
p1385
F1
sS'Punit R. Doshi'
p1386
F1
sS'Jerry Kiernan'
p1387
F0.092307692307692313
sS'Kun-Lung Wu'
p1388
F0.013793103448275862
sS'Geert Jan Bex'
p1389
F0.18181818181818182
sS'John T. Robinson'
p1390
F0.18181818181818182
sS'Don S. Batory'
p1391
F0.27272727272727271
sS'Greg Fu'
p1392
F1
sS'Werner Dreyer'
p1393
F0.66666666666666663
sS'Sheau-Dong Lang'
p1394
F0.125
sS'Lukas Relly'
p1395
F1
sS'Eric A. Brewer'
p1396
F0.12903225806451613
sS'Wenfei Fan'
p1397
F0.0472972972972973
sS'Gennaro A. Cuomo'
p1398
F1
sS'Salvatore T. March'
p1399
F0.66666666666666663
sS'Jihad Boulos'
p1400
F0.33333333333333331
sS'Siddhesh Bhobe'
p1401
F1
sS'Raghav Kaushik'
p1402
F0.095238095238095233
sS'Liuba Shrira'
p1403
F0.44444444444444442
sS'Kihong Kim'
p1404
F0.40000000000000002
sS'Yanfeng Shu'
p1405
F1
sS'Roland Ritsch'
p1406
F0.33333333333333331
sS'Norbert Beckmann'
p1407
F1
sS'Ranjan Sinha'
p1408
F1
sS'Ross Shaull'
p1409
F0.66666666666666663
sS'Yan Chen'
p1410
F1
sS'Kou-Horng Yang'
p1411
F0.66666666666666663
sS'Andi Gutmans'
p1412
F1
sS'J. D. Clark'
p1413
F1
sS'Michael Pizzo'
p1414
F1
sS'Alexander Brodsky'
p1415
F0.26666666666666666
sS'J. Longstaff'
p1416
F1
sS'Brian Vickery'
p1417
F0.66666666666666663
sS'Charudatta V. Wad'
p1418
F1
sS'Gabriel M. Kuper'
p1419
F0.029411764705882353
sS'Xiao Qin'
p1420
F0.80000000000000004
sS'Henri Hennebert'
p1421
F1
sS'Sanghoon Cha'
p1422
F1
sS'Patrizia Santa'
p1423
F1
sS'S. W. Ng'
p1424
F0.66666666666666663
sS'Walt Kohler'
p1425
F1
sS'Zhen Zhang'
p1426
F0.36363636363636365
sS'Anthony Tomasic'
p1427
F0.23255813953488372
sS'Fran\xc3\xa7oise Fabret'
p1428
F0.22222222222222221
sS'Christos Kozyrakis'
p1429
F1
sS'Ioannis Koltsidas'
p1430
F1
sS'Ghislain Fourny'
p1431
F1
sS'Marc H. Scholl'
p1432
F0.20000000000000001
sS'M. Gentile'
p1433
F1
sS'Tolga Urhan'
p1434
F0.40000000000000002
sS'Silke Tri\xc3\x9fl'
p1435
F1
sS'Shariq Rizvi'
p1436
F0.31578947368421051
sS'Michael J. Pazzani'
p1437
F0.013605442176870748
sS'Arcot Rajasekar'
p1438
F0.66666666666666663
sS'Konrad Schwarz'
p1439
F1
sS'Felipe Cabrera'
p1440
F0.66666666666666663
sS'Spyros Potamianos'
p1441
F0.66666666666666663
sS'Vladimir Zadorozhny'
p1442
F0.5
sS'Markos Zaharioudakis'
p1443
F0.5
sS'Dennis Fogg'
p1444
F1
sS'Ruoming Jin'
p1445
F0.036363636363636362
sS'Colin Evans'
p1446
F1
sS'Barton P. Miller'
p1447
F1
sS'Boris Chidlovskii'
p1448
F0.18181818181818182
sS'Hasan Davulcu'
p1449
F0.15384615384615385
sS'Binto George'
p1450
F0.66666666666666663
sS'Marc Gemis'
p1451
F0.66666666666666663
sS'Binling Jin'
p1452
F0.66666666666666663
sS'Arvind Arasu'
p1453
F0.22222222222222221
sS'William Perrizo'
p1454
F0.125
sS'Dan Suciu'
p1455
F0.049557522123893805
sS'Philip Cannata'
p1456
F1
sS'George Kollios'
p1457
F0.058823529411764705
sS'Rada Chirkova'
p1458
F0.29999999999999999
sS'Ugur \xc3\x87etintemel'
p1459
F0.090090090090090086
sS'Yukiyoshi Saito'
p1460
F1
sS'Pragnesh Jay Modi'
p1461
F0.2857142857142857
sS'Marek Sherman'
p1462
F1
sS'Laks V. S. Lakshmanan'
p1463
F0.040816326530612242
sS'Wang-Pin Hsiung'
p1464
F0.035714285714285712
sS'Dean Daniels'
p1465
F0.66666666666666663
sS'Yunyao Li'
p1466
F0.42857142857142855
sS'Panos Kalnis'
p1467
F0.32000000000000001
sS'Enrico Nardelli'
p1468
F0.66666666666666663
sS'Houman Alborzi'
p1469
F0.66666666666666663
sS'Gurmeet Singh Manku'
p1470
F0.30769230769230771
sS'Luping Ding'
p1471
F0.22222222222222221
sS'Ahmed A. Soror'
p1472
F1
sS'Mark Paskin'
p1473
F1
sS'Helen P. Yeung'
p1474
F1
sS'Fabio A. Schreiber'
p1475
F1
sS'Tiankai Tu'
p1476
F1
sS'Frank Manola'
p1477
F0.12903225806451613
sS'Jayavel Shanmugasundaram'
p1478
F0.11049723756906077
sS'T. Lougenia Anderson'
p1479
F0.66666666666666663
sS'Emmanuel Cecchet'
p1480
F1
sS'Rudolf Munz'
p1481
F0.33333333333333331
sS'Wei Fan'
p1482
F0.0092592592592592587
sS'Ruy Ley-Wild'
p1483
F1
sS'Nick Koudas'
p1484
F0.02368421052631579
sS'G\xc3\xb6sta Grahne'
p1485
F0.037735849056603772
sS'Jae-Myung Kim'
p1486
F1
sS'Robert M. Curtice'
p1487
F0.66666666666666663
sS'Paul Brown'
p1488
F0.23076923076923078
sS'Stefan Aulbach'
p1489
F1
sS'Benjamin G. Zorn'
p1490
F0.80000000000000004
sS'Felix I. Wyss'
p1491
F1
sS'Yannis Vassiliou'
p1492
F0.42857142857142855
sS'Petros Maniatis'
p1493
F0.66666666666666663
sS'Adam Prout'
p1494
F1
sS'Jo\xc3\xa3o Pereira'
p1495
F0.33333333333333331
sS'Amol Katkar'
p1496
F0.66666666666666663
sS'Daniel F. Lieuwen'
p1497
F0.15384615384615385
sS'Krithi Ramamritham'
p1498
F0.061946902654867256
sS'Jan Rittinger'
p1499
F0.34782608695652173
sS'Marina Roesler'
p1500
F1
sS'James L. Hafner'
p1501
F1
sS'Philip A. Bernstein'
p1502
F0.046579330422125184
sS'Gunter Schlageter'
p1503
F0.12903225806451613
sS'H. Sato'
p1504
F1
sS'Kenneth C. Sevcik'
p1505
F0.10000000000000001
sS'Erik G. Hoel'
p1506
F0.2857142857142857
sS'Sihem Amer-Yahia'
p1507
F0.06222222222222222
sS'Jae-Gil Lee'
p1508
F0.29999999999999999
sS'Emran Qureshi'
p1509
F1
sS'Jehan Wickramasuriya'
p1510
F1
sS'J\xc3\xbcrgen Zimmermann'
p1511
F0.66666666666666663
sS'Yihua Wu'
p1512
F0.33333333333333331
sS'Michael Jaedicke'
p1513
F0.66666666666666663
sS'Clement T. Yu'
p1514
F0.020091324200913242
sS'Ben Kao'
p1515
F0.044444444444444446
sS'Christopher R\xc3\xa9'
p1516
F0.59999999999999998
sS'Thomas Brinkhoff'
p1517
F0.375
sS'Yigal Arens'
p1518
F0.125
sS'Kenneth Moore'
p1519
F0.66666666666666663
sS'Hao Yang'
p1520
F0.5
sS'Michael J. Carey'
p1521
F0.035874439461883408
sS'Dean Jacobs'
p1522
F0.36363636363636365
sS'Nicolas Anciaux'
p1523
F0.16666666666666666
sS'Michael J. Zwilling'
p1524
F0.59999999999999998
sS'Diego Calvanese'
p1525
F0.022222222222222223
sS'Ee-Peng Lim'
p1526
F0.017241379310344827
sS'Rui Wang 0002'
p1527
F0.54545454545454541
sS'Michael Watzke'
p1528
F0.2857142857142857
sS'Paul Iglinski'
p1529
F0.66666666666666663
sS'Annita N. Wilschut'
p1530
F0.2857142857142857
sS'R. Erbe'
p1531
F0.44444444444444442
sS'Peter M. Spiro'
p1532
F1
sS'John Shepherd'
p1533
F0.36363636363636365
sS'U. Pr\xc3\xa4del'
p1534
F0.5
sS'Aiqun Du'
p1535
F1
sS'Brian Meckler'
p1536
F0.80000000000000004
sS'V. Prasad Chakka'
p1537
F1
sS'Tolga Bozkaya'
p1538
F0.29999999999999999
sS'Kothuri Venkata Ravi Kanth'
p1539
F0.40000000000000002
sS'Hongwei Wu'
p1540
F1
sS'Suman Nath'
p1541
F0.5
sS'Jack Minker'
p1542
F0.068965517241379309
sS'Le Gruenwald'
p1543
F0.10526315789473684
sS'Nicholas E. Taylor'
p1544
F0.66666666666666663
sS'Alexander B\xc3\xb6hm 0002'
p1545
F0.66666666666666663
sS'Arvind Nithrakashyap'
p1546
F1
sS'John McPherson'
p1547
F0.5714285714285714
sS'Martha W. Evens'
p1548
F0.5714285714285714
sS'Thierry Cruanes'
p1549
F0.66666666666666663
sS'Jens Teubner'
p1550
F0.17647058823529413
sS'Despina Papoulis'
p1551
F1
sS'George Colliat'
p1552
F1
sS'Chi-Yin Chow'
p1553
F0.2857142857142857
sS'The Access Team'
p1554
F1
sS'Weimin Du'
p1555
F0.090909090909090912
sS'Amihai Motro'
p1556
F0.25641025641025639
sS'Kiran J. Achyutuni'
p1557
F1
sS'K. Ganapathi'
p1558
F1
sS'Andrew Philpot'
p1559
F1
sS'Michael Doherty'
p1560
F1
sS'Daniel Gyllstrom'
p1561
F0.66666666666666663
sS'Gianluigi Greco'
p1562
F0.071428571428571425
sS'Anastassia Ailamaki'
p1563
F0.043859649122807015
sS'Ulf Leser'
p1564
F0.40000000000000002
sS'R. F. Deutscher'
p1565
F1
sS'Jim Kleewein'
p1566
F0.33333333333333331
sS'Vivek R. Narasayya'
p1567
F0.1015625
sS'R. G. G. Cattell'
p1568
F0.37037037037037035
sS'Lin Guo'
p1569
F0.40000000000000002
sS'Byron Dom'
p1570
F0.080000000000000002
sS'Ananth Raghavan'
p1571
F1
sS'Yoshiharu Ishikawa'
p1572
F0.66666666666666663
sS'Kelly Ireland'
p1573
F1
sS'Christoph Koch'
p1574
F0.041379310344827586
sS'Vijay Raghavan'
p1575
F0.5714285714285714
sS'Shivakumar Venkataraman'
p1576
F0.16666666666666666
sS'Miron Livny'
p1577
F0.068421052631578952
sS'Gopal C. Das'
p1578
F1
sS'Ismailcem Budak Arpinar'
p1579
F0.5714285714285714
sS'Anand Bhaskar'
p1580
F0.66666666666666663
sS'Christian Kleinerman'
p1581
F0.66666666666666663
sS'Federico Barbic'
p1582
F0.66666666666666663
sS'Pradeep Gunda'
p1583
F1
sS'Victor Vianu'
p1584
F0.0086956521739130436
sS'Tony Schaller'
p1585
F1
sS'Jihwang Yeo'
p1586
F1
sS'Xiang Lian'
p1587
F0.076923076923076927
sS'Arthur T. Whitney'
p1588
F1
sS'Yuri Breitbart'
p1589
F0.21428571428571427
sS'Hansj\xc3\xb6rg Fromm'
p1590
F1
sS'George P. Copeland'
p1591
F0.24390243902439024
sS'Narain H. Gehani'
p1592
F0.20408163265306123
sS'Shivakumar Vaithyanathan'
p1593
F0.15384615384615385
sS'Nick Roussopoulos'
p1594
F0.07575757575757576
sS'Patrick A. V. Hall'
p1595
F0.66666666666666663
sS'Mihai Patrascu'
p1596
F1
sS'Padmavathi Vallabhaneni'
p1597
F0.66666666666666663
sS'Sam Toueg'
p1598
F0.66666666666666663
sS'Michael Chu'
p1599
F1
sS'Srinivasa Narayanan'
p1600
F0.33333333333333331
sS'Paul C. Attie'
p1601
F0.66666666666666663
sS'Shimin Chen'
p1602
F0.40000000000000002
sS'Limsoon Wong'
p1603
F0.083333333333333329
sS'S. Gogate'
p1604
F0.66666666666666663
sS'Randall Hauch'
p1605
F1
sS'Shiwei Tang'
p1606
F0.20000000000000001
sS'Nicola Leone'
p1607
F0.041666666666666664
sS'Robert Michael Lefler'
p1608
F1
sS'Hoshi Mistry'
p1609
F1
sS'Stefan Fischer 0003'
p1610
F1
sS'Marvin H. Solomon'
p1611
F0.5714285714285714
sS'Richard R. Muntz'
p1612
F0.092307692307692313
sS'Ivan Oprencak'
p1613
F0.66666666666666663
sS'Iman Elghandour'
p1614
F0.66666666666666663
sS'Michael J. Franklin'
p1615
F0.042889390519187359
sS'Kun Liu'
p1616
F0.25
sS'Dean E. Hall'
p1617
F1
sS'Alex Miller'
p1618
F1
sS'Wolfgang Faber'
p1619
F0.05128205128205128
sS'Beverly K. Kahn'
p1620
F1
sS'Mariano P. Consens'
p1621
F0.17543859649122806
sS'Beno\xc3\xaet Dageville'
p1622
F0.29999999999999999
sS'Markku Tamminen'
p1623
F1
sS'Arie Shoshani'
p1624
F0.057142857142857141
sS'Leslie Cranston'
p1625
F0.5
sS'Abdur Chowdhury'
p1626
F0.010471204188481676
sS'Ebru Kilic'
p1627
F1
sS'Sait Pektas'
p1628
F1
sS'M. Wilder'
p1629
F1
sS'Michael Suckow'
p1630
F0.80000000000000004
sS'Tim Sheard'
p1631
F0.44444444444444442
sS'Mark Porter'
p1632
F1
sS'Alex Rasin'
p1633
F0.40000000000000002
sS'Zhongyang Zhang'
p1634
F0.66666666666666663
sS'James Cheng'
p1635
F0.20000000000000001
sS'Mark de Berg'
p1636
F1
sS'Ge Yu'
p1637
F0.10526315789473684
sS'Alessandro Campi'
p1638
F0.40000000000000002
sS'Maged El-Sayed'
p1639
F0.66666666666666663
sS'Dieter Gawlick'
p1640
F0.22222222222222221
sS'Georg Lausen'
p1641
F0.081632653061224483
sS'Michael Fink'
p1642
F0.13333333333333333
sS'Bob Jenkins'
p1643
F1
sS'Huei-Huang Chen'
p1644
F1
sS'Volkert Brosda'
p1645
F0.66666666666666663
sS'C. C. Chang'
p1646
F1
sS'Jin Li'
p1647
F0.80000000000000004
sS'Hock-Beng Lim'
p1648
F0.66666666666666663
sS'Jiexing Li'
p1649
F0.66666666666666663
sS'Alain Pirotte'
p1650
F0.10000000000000001
sS'J. Nations'
p1651
F1
sS'Timothy Roscoe'
p1652
F0.80000000000000004
sS'Kenneth Keller'
p1653
F1
sS'George Eadon'
p1654
F0.20000000000000001
sS'Michalis Petropoulos'
p1655
F0.54545454545454541
sS'Navendu Jain'
p1656
F0.66666666666666663
sS'Michael Rys'
p1657
F0.29999999999999999
sS'Janet Perna'
p1658
F1
sS'Leng Leng Tan'
p1659
F1
sS'Kwai Wong'
p1660
F0.5
sS'Todd A. Anderson'
p1661
F1
sS'Sang Kyun Cha'
p1662
F0.17647058823529413
sS'Krzysztof Koperski'
p1663
F0.40000000000000002
sS'Dmitri V. Kalashnikov'
p1664
F0.30769230769230771
sS'Dirk Vermeir'
p1665
F0.66666666666666663
sS'Hideto Ikeda'
p1666
F0.33333333333333331
sS'Stella Gatziu'
p1667
F0.5
sS'Wolfgang K\xc3\xa4fer'
p1668
F0.5
sS'Wei Zhang'
p1669
F0.095238095238095233
sS'Brian Babcock'
p1670
F0.27777777777777779
sS'T. Y. Cliff Leung'
p1671
F0.090909090909090912
sS'Martin Pfeifle'
p1672
F0.10526315789473684
sS'Charles D. Coleman'
p1673
F1
sS'Huiming Qu'
p1674
F0.2857142857142857
sS'Thierry Barsalou'
p1675
F0.66666666666666663
sS'Chin Hong Goh'
p1676
F1
sS'Nitin Thaper'
p1677
F1
sS'Y. C. Ho'
p1678
F1
sS'Ryan Huebsch'
p1679
F0.44444444444444442
sS'Sharon C. Salveter'
p1680
F0.66666666666666663
sS'Shuzo Yajima'
p1681
F0.5
sS'Gerard Salton'
p1682
F0.0068728522336769758
sS'Thomas Eiter'
p1683
F0.01020408163265306
sS'Wenjuan Xing'
p1684
F1
sS'Sakti P. Ghosh'
p1685
F0.07407407407407407
sS'Ki Hong Kim'
p1686
F1
sS'Viktoriya Sokolova'
p1687
F1
sS'Guodong Liu'
p1688
F1
sS'Thomas Seidl'
p1689
F0.086021505376344093
sS'Jiawei Han'
p1690
F0.013818761626361946
sS'Daniel Leifker'
p1691
F1
sS'T. William Olle'
p1692
F1
sS'Howard Ho'
p1693
F0.40000000000000002
sS'Stephanie J. Cammarata'
p1694
F0.22222222222222221
sS'Ralph Michaelis'
p1695
F1
sS'Eric Bloedorn'
p1696
F0.66666666666666663
sS'Alexandre V. Evfimievski'
p1697
F0.40000000000000002
sS'Dan Lin'
p1698
F0.16666666666666666
sS'Xin Xu'
p1699
F0.46153846153846156
sS'Kun Yue'
p1700
F1
sS'Vincent Y. Lum'
p1701
F0.21052631578947367
sS'Pavel Avgustinov'
p1702
F0.66666666666666663
sS'Charles Hoch'
p1703
F0.80000000000000004
sS'Bruce I. Blum'
p1704
F1
sS'Stefan Berchtold'
p1705
F0.21621621621621623
sS'Shinichi Morishita'
p1706
F0.19047619047619047
sS'Andrew Laursen'
p1707
F1
sS'Jagan Sankaranarayanan'
p1708
F0.33333333333333331
sS'Jiansan Chen'
p1709
F0.80000000000000004
sS'S. Bing Yao'
p1710
F0.097560975609756101
sS'Lip Boon Doo'
p1711
F1
sS'Boualem Benatallah'
p1712
F0.03125
sS'Giorgio Ghelli'
p1713
F0.33333333333333331
sS'David Hung-Chang Du'
p1714
F0.2857142857142857
sS'Qiang Ding'
p1715
F0.66666666666666663
sS'Antonio Badia'
p1716
F0.5714285714285714
sS'Surajit Chaudhuri'
p1717
F0.026273885350318472
sS'Thin-Fong Tsuei'
p1718
F1
sS'Souripriya Das'
p1719
F0.071428571428571425
sS'Bhaskaran Raman'
p1720
F0.2857142857142857
sS'Maria Grazia Fugini'
p1721
F0.33333333333333331
sS'Bruce Lo'
p1722
F1
sS'Srinath Shankar'
p1723
F1
sS'Jialie Shen'
p1724
F0.44444444444444442
sS'A. Kumaran'
p1725
F0.1111111111111111
sS'Raja Ramnarayan'
p1726
F1
sS'Craig Harris'
p1727
F1
sS'Romain Colle'
p1728
F1
sS'Rebecca Braynard'
p1729
F0.33333333333333331
sS'David R. Kaeli'
p1730
F0.66666666666666663
sS'Rajiv Chopra'
p1731
F0.66666666666666663
sS'Parthasarathy Ranganathan'
p1732
F1
sS'Anoop Singhal'
p1733
F0.16666666666666666
sS'David E. Simmen'
p1734
F0.375
sS'Phil Shaw'
p1735
F1
sS'George Karvelis'
p1736
F1
sS"Patrick E. O'Neil"
p1737
F0.23999999999999999
sS'Maria Pratt'
p1738
F1
sS'Christopher Olston'
p1739
F0.090909090909090912
sS'Daniele Braga'
p1740
F0.40000000000000002
sS'Rakesh Agrawal'
p1741
F0.023312287518212724
sS'Hasanat M. Dewan'
p1742
F0.80000000000000004
sS'Aashu Virmani'
p1743
F0.66666666666666663
sS'Aparna S. Varde'
p1744
F0.5
sS'Xiaowei Jiang'
p1745
F1
sS'Adele Goldberg'
p1746
F1
sS'Ming Li'
p1747
F0.057142857142857141
sS'Dennis R. McCarthy'
p1748
F0.5
sS'Barron C. Housel'
p1749
F0.18181818181818182
sS'Sharma Chakravarthy'
p1750
F0.07792207792207792
sS'Heiko Schuldt'
p1751
F0.18181818181818182
sS'Frederick Reiss'
p1752
F0.16
sS'Huacheng C. Ying'
p1753
F1
sS'Yasushi Sakurai'
p1754
F0.23529411764705882
sS'Moira C. Norrie'
p1755
F0.5714285714285714
sS'Peer Kr\xc3\xb6ger'
p1756
F0.085106382978723402
sS'Pinar Pembecioglu'
p1757
F1
sS'Yahiko Kambayashi'
p1758
F0.125
sS'Murthy Ganti'
p1759
F1
sS'Mohammed J. Zaki'
p1760
F0.5
sS'Piyush Goel'
p1761
F0.66666666666666663
sS'Sang-Won Lee'
p1762
F0.80000000000000004
sS'Zonghuan Wu'
p1763
F0.2857142857142857
sS'Konstantin Golenberg'
p1764
F1
sS'Arthur M. Keller'
p1765
F0.14925373134328357
sS'Fang Liu'
p1766
F0.15384615384615385
sS'Willem Jonker'
p1767
F0.40000000000000002
sS'Xiaochun Yang'
p1768
F0.2857142857142857
sS'David H. Taenzer'
p1769
F1
sS'Ellen E. Boughter'
p1770
F1
sS'Ming-Ling Lo'
p1771
F0.42105263157894735
sS'Xuan Zhou'
p1772
F0.2857142857142857
sS'John Burgess'
p1773
F0.66666666666666663
sS'Ming-Chuan Wu'
p1774
F0.2857142857142857
sS'Adam Silberstein'
p1775
F0.16666666666666666
sS'Periklis Andritsos'
p1776
F0.5
sS'Uwe R\xc3\xb6hm'
p1777
F0.15384615384615385
sS'Tomas Blain'
p1778
F1
sS'Xuan Zheng'
p1779
F1
sS'Peter M. Fischer'
p1780
F0.2857142857142857
sS'Stijn Vansummeren'
p1781
F0.095238095238095233
sS'Huanmei Wu'
p1782
F0.80000000000000004
sS'Fatma Ozcan'
p1783
F0.33333333333333331
sS'Reiko Ito'
p1784
F1
sS'Vibhuti S. Sengar'
p1785
F0.44444444444444442
sS'Ding-An Chiang'
p1786
F0.66666666666666663
sS'Craig S. Freedman'
p1787
F1
sS'M. Er-radi'
p1788
F1
sS'Xiaolei Qian'
p1789
F0.097560975609756101
sS'Nicholas J. Multari'
p1790
F1
sS'Wolfgang Wilkes'
p1791
F0.2857142857142857
sS'Pavan Deolasee'
p1792
F0.66666666666666663
sS'Matthew Huras'
p1793
F0.66666666666666663
sS'Wang Chiew Tan'
p1794
F0.1038961038961039
sS'Xueqing Gong'
p1795
F0.40000000000000002
sS'Jim Gray'
p1796
F0.09375
sS'Gerd G. Hillebrand'
p1797
F0.33333333333333331
sS'Kaustubh Deshmukh'
p1798
F1
sS'Rainer Unland'
p1799
F0.2857142857142857
sS'Andreas Gr\xc3\xbcnhagen'
p1800
F0.66666666666666663
sS'C. Watson'
p1801
F1
sS'Nobuo Ohbo'
p1802
F0.5
sS'Lowell A. Carmony'
p1803
F1
sS'Umesh Maheshwari'
p1804
F0.54545454545454541
sS'Dick Hung'
p1805
F1
sS'Kestutis Ivinskis'
p1806
F1
sS'Manish Arya'
p1807
F0.33333333333333331
sS'Jagrati Agrawal'
p1808
F0.66666666666666663
sS'Zhimin Chen'
p1809
F0.66666666666666663
sS'Kaushik Chakrabarti'
p1810
F0.25
sS'Katica Dimitrova'
p1811
F1
sS'Matthias Renz'
p1812
F0.076923076923076927
sS'Antonio L. Furtado'
p1813
F0.050000000000000003
sS'Stavros Harizopoulos'
p1814
F0.12903225806451613
sS'Julio C. L\xc3\xb3pez'
p1815
F1
sS'Atsushi Ohori'
p1816
F0.66666666666666663
sS'Mingsheng Hong'
p1817
F0.40000000000000002
sS'Jeff Meredith'
p1818
F1
sS'Haifeng Jiang'
p1819
F0.085106382978723402
sS'Frank Neven'
p1820
F0.021052631578947368
sS'Per Bendsen'
p1821
F1
sS'Mostafa A. Bassiouni'
p1822
F0.5
sS'Olga Kapitskaia'
p1823
F0.33333333333333331
sS'John H. Howard'
p1824
F1
sS'Hui-I Hsiao'
p1825
F0.29411764705882354
sS'Nita Goyal'
p1826
F0.5714285714285714
sS'Yang-Sae Moon'
p1827
F0.2857142857142857
sS'Hyoseop Shin'
p1828
F1
sS'J. P. Thompson'
p1829
F1
sS'James E. Allchin'
p1830
F1
sS'Sriram Vanama'
p1831
F1
sS'Janis A. Bubenko Jr.'
p1832
F0.1111111111111111
sS'Howard L. Morgan'
p1833
F1
sS'Anita N. Benson'
p1834
F1
sS'Vijayshankar Raman'
p1835
F0.092485549132947972
sS'Chris Eaton'
p1836
F0.66666666666666663
sS'Bert Van der Linden'
p1837
F0.44444444444444442
sS'Hooyeon Lee'
p1838
F1
sS'Fabian M. Suchanek'
p1839
F0.22222222222222221
sS'Toshiaki Okawara'
p1840
F1
sS'D. Luo'
p1841
F1
sS'Garrett Cole'
p1842
F1
sS'Ben Sowell'
p1843
F1
sS'Mark R. Tuttle'
p1844
F0.66666666666666663
sS'Qingshan Luo'
p1845
F1
sS'Roxana Geambasu'
p1846
F0.66666666666666663
sS'Linqi Liu'
p1847
F0.66666666666666663
sS'Philip S. Yu'
p1848
F0.0063818471902145008
sS'Chengkai Li'
p1849
F0.37037037037037035
sS'Frederick H. Lochovsky'
p1850
F0.080000000000000002
sS'M. Ranganathan'
p1851
F1
sS'San-Yih Hwang'
p1852
F0.14285714285714285
sS'Stuart E. Madnick'
p1853
F0.038461538461538464
sS'Song Wang'
p1854
F0.2857142857142857
sS'Michalis Potamias'
p1855
F0.40000000000000002
sS'Shai Geva'
p1856
F0.66666666666666663
sS'Nan C. Shu'
p1857
F0.66666666666666663
sS'Tobias Mayr'
p1858
F0.47058823529411764
sS'Karl Schnaitter'
p1859
F0.5
sS'Ching-Tien Ho'
p1860
F0.16666666666666666
sS'J\xc3\xb6rg Sander'
p1861
F0.13114754098360656
sS'Corrine Cheng'
p1862
F1
sS'S. Haldar'
p1863
F1
sS'Alfons Kemper'
p1864
F0.042105263157894736
sS'David A. Wood'
p1865
F0.66666666666666663
sS'Yannis Theodoridis'
p1866
F0.18181818181818182
sS'Ravi Jampani'
p1867
F0.80000000000000004
sS'Ioana Manolescu'
p1868
F0.054421768707482991
sS'David E. Gay'
p1869
F1
sS'Baoqiu Cui'
p1870
F1
sS'Larry Berke'
p1871
F1
sS'Tamraparni Dasu'
p1872
F0.44444444444444442
sS'Mihai Lupu'
p1873
F0.33333333333333331
sS'Chanik Park'
p1874
F1
sS'HweeBong Kwah'
p1875
F1
sS'Leonid Libkin'
p1876
F0.016085790884718499
sS'Leon A. Shklar'
p1877
F1
sS'K. Mediratta'
p1878
F1
sS'George Candea'
p1879
F1
sS'Michael Flaster'
p1880
F0.33333333333333331
sS'Christoph Kiefer'
p1881
F0.5
sS'Yanif Ahmad'
p1882
F0.40000000000000002
sS'Y. Alp Aslandogan'
p1883
F0.2857142857142857
sS'Chee Yong Chan'
p1884
F0.11842105263157894
sS'Ying Zheng'
p1885
F1
sS'Hua Lu'
p1886
F0.10526315789473684
sS'Fr\xc3\xa9d\xc3\xa9ic Vincent'
p1887
F1
sS'Jay Kasi'
p1888
F1
sS'Andrea C. Arpaci-Dusseau'
p1889
F1
sS'R. McCord'
p1890
F1
sS'Mukesh Mulchandani'
p1891
F0.80000000000000004
sS'Keith W. Kintigh'
p1892
F1
sS'Sukho Lee'
p1893
F0.2857142857142857
sS'Peter Kokosielis'
p1894
F1
sS'Peter Buneman'
p1895
F0.12429378531073447
sS'Christian S. Jensen'
p1896
F0.012500000000000001
sS'Paul Cereghini'
p1897
F1
sS'Joann J. Ordille'
p1898
F0.2857142857142857
sS'Diana Zhou'
p1899
F1
sS'Andreas Wapf'
p1900
F1
sS'Viviane Crestana-Taube'
p1901
F1
sS'Paul G. Sorenson'
p1902
F0.5714285714285714
sS'Ramesh Gupta'
p1903
F1
sS'Berthold Reinwald'
p1904
F0.23333333333333334
sS'Vincent Oria'
p1905
F0.5714285714285714
sS'Andrey Balmin'
p1906
F0.11764705882352941
sS'Scott Newmann'
p1907
F1
sS'Malcolm P. Atkinson'
p1908
F0.2857142857142857
sS'Vincenzino Lio'
p1909
F1
sS'Haruaki Yamazaki'
p1910
F1
sS'Ilker Durusoy'
p1911
F1
sS'Fabio Casati'
p1912
F0.016666666666666666
sS'Octavian Udrea'
p1913
F0.25
sS'Shashank Pandit'
p1914
F0.15384615384615385
sS'Ralf Schneider'
p1915
F0.54545454545454541
sS'Benjamin Nguyen'
p1916
F0.66666666666666663
sS'Yu Jiang'
p1917
F1
sS'Zhiyuan Chen'
p1918
F0.29999999999999999
sS'Shantanu Joshi'
p1919
F0.2857142857142857
sS'Thorsten von Eicken'
p1920
F1
sS'Tali Roth'
p1921
F1
sS'Alon Y. Halevy'
p1922
F0.088328075709779186
sS'Fan Deng'
p1923
F1
sS'Till Westmann'
p1924
F0.16666666666666666
sS'Stefan Manegold'
p1925
F0.095238095238095233
sS'John L. Berg'
p1926
F0.66666666666666663
sS'Jayant Madhavan'
p1927
F0.27586206896551724
sS'Sarvjeet Singh'
p1928
F0.22222222222222221
sS'Clarence A. Ellis'
p1929
F0.5
sS'Hui Ding'
p1930
F1
sS'Michael V. Mannino'
p1931
F0.33333333333333331
sS'D. M. Tolbert'
p1932
F1
sS'Bogdan Alexe'
p1933
F0.25
sS'Devesh Parekh'
p1934
F1
sS'Sushil Jajodia'
p1935
F0.14285714285714285
sS'Alan S. Wagner'
p1936
F1
sS'Joachim Hammer'
p1937
F0.36363636363636365
sS'Isabel F. Cruz'
p1938
F0.44444444444444442
sS'Francesco M. Malvestuto'
p1939
F0.2857142857142857
sS'Songting Chen'
p1940
F0.19230769230769232
sS'C\xc3\xa9sar A. Galindo-Legaria'
p1941
F0.1348314606741573
sS'Mark L. McAuliffe'
p1942
F0.66666666666666663
sS'Paolo Paolini'
p1943
F0.40000000000000002
sS'Andrzej Cichocki'
p1944
F0.2857142857142857
sS'Roman Yangarber'
p1945
F1
sS'David S. Reiner'
p1946
F0.5714285714285714
sS'J. H. Mommens'
p1947
F1
sS'Yannis Sismanis'
p1948
F0.32258064516129031
sS'Silvano Pozzi'
p1949
F0.33333333333333331
sS'Frank Wm. Tompa'
p1950
F0.125
sS'Linan Jiang'
p1951
F0.5
sS'Chang-Ho Kim'
p1952
F1
sS'Takako M. Hickey'
p1953
F1
sS'S. Viswanathan'
p1954
F0.66666666666666663
sS'Taro L. Saito'
p1955
F1
sS'Dieter Korus'
p1956
F1
sS'Yan Zhao'
p1957
F0.5714285714285714
sS'Jeff Jonas'
p1958
F0.66666666666666663
sS'Bin Cui'
p1959
F0.30769230769230771
sS'Amy Wang'
p1960
F1
sS'John Woodruff'
p1961
F1
sS'Kenneth Salem'
p1962
F0.13043478260869565
sS'Laurent Vieille'
p1963
F0.5
sS'G. Linderman'
p1964
F0.66666666666666663
sS'Howard Trickey'
p1965
F1
sS'Eric Mays'
p1966
F0.10000000000000001
sS'Christopher M. Jermaine'
p1967
F0.5
sS'Cyrus Shahabi'
p1968
F0.063157894736842107
sS'Arun N. Swami'
p1969
F0.17647058823529413
sS'Donghui Zhang'
p1970
F0.045977011494252873
sS'Jeanine Wei\xc3\x9fenfels'
p1971
F0.26666666666666666
sS'Edward L. Wimmers'
p1972
F0.44444444444444442
sS'Young-Gook Ra'
p1973
F0.5
sS'Tao Li'
p1974
F0.0068027210884353739
sS'Suparna Bhattacharya'
p1975
F1
sS'Piyush Shivam'
p1976
F0.66666666666666663
sS'Mehul A. Shah'
p1977
F0.31578947368421051
sS'Norman Seemann'
p1978
F1
sS'Chandrasekhar Srinivasan'
p1979
F1
sS'Mustafa Uysal'
p1980
F0.66666666666666663
sS'Dengfeng Gao'
p1981
F0.40000000000000002
sS'Yiping Ke'
p1982
F0.22222222222222221
sS'Michael Rabinovich'
p1983
F0.070175438596491224
sS'Julian Winter'
p1984
F1
sS'Nesime Tatbul'
p1985
F0.18181818181818182
sS'Leonard McMillan'
p1986
F0.2857142857142857
sS'Detlef K\xc3\xbcpper'
p1987
F1
sS'Sanghyun Park'
p1988
F0.050000000000000003
sS'Kurt D. Bollacker'
p1989
F0.40000000000000002
sS'Tengjiao Wang'
p1990
F0.33333333333333331
sS'Bennet Vance'
p1991
F0.5
sS'Aaron Watters'
p1992
F0.66666666666666663
sS'Izchak Sharfman'
p1993
F0.66666666666666663
sS'C. Wei'
p1994
F1
sS'Marco Brambilla'
p1995
F0.2857142857142857
sS'Mat Henaire'
p1996
F1
sS'Chen Li'
p1997
F0.1111111111111111
sS'Terrance Swift'
p1998
F0.80000000000000004
sS'Neil C. Rowe'
p1999
F0.16666666666666666
sS'Brad Hammond'
p2000
F0.66666666666666663
sS'Ziyang Liu'
p2001
F0.5714285714285714
sS'David Aumueller'
p2002
F1
sS'Paula J. Cowley'
p2003
F1
sS'Eden Shochat'
p2004
F1
sS'Theodore Johnson'
p2005
F0.098901098901098897
sS'Torsten Grust'
p2006
F0.21276595744680851
sS'Pat Helland'
p2007
F0.66666666666666663
sS'Eric N. Hanson'
p2008
F0.2857142857142857
sS'Christian Breiteneder'
p2009
F0.66666666666666663
sS'Chun Kit Chui'
p2010
F0.2857142857142857
sS'James Rhodes'
p2011
F0.66666666666666663
sS'Padmashree Krishna'
p2012
F1
sS'Sourav S. Bhowmick'
p2013
F0.02564102564102564
sS'Yu Yin'
p2014
F1
sS'David M. Choy'
p2015
F1
sS'Thomas J. E. Schwarz'
p2016
F0.2857142857142857
sS'Ronald G. Ross'
p2017
F1
sS'Zachary G. Ives'
p2018
F0.21875
sS'Tanu Malik'
p2019
F0.66666666666666663
sS'Daniel A. Menasc\xc3\xa9'
p2020
F0.5
sS'Sena Nural'
p2021
F0.66666666666666663
sS'Suresha'
p2022
F1
sS'Foto N. Afrati'
p2023
F0.040000000000000001
sS'Christof Hasse'
p2024
F0.25
sS'Alon Y. Levy'
p2025
F0.045045045045045043
sS'Art Kaufmann'
p2026
F1
sS'Kajal T. Claypool'
p2027
F0.54545454545454541
sS'Ritesh Kumar'
p2028
F1
sS'David Toman'
p2029
F0.16666666666666666
sS'Hirotaka Sakai'
p2030
F0.5
sS'Cong Yu'
p2031
F0.15625
sS'Stefan De\xc3\x9floch'
p2032
F0.16666666666666666
sS'Marta Jessica Jakobisiak'
p2033
F1
sS'Mahesh V. Joshi'
p2034
F0.16666666666666666
sS'Bo Huang'
p2035
F1
sS'Debajyoti Mukhopadhyay'
p2036
F1
sS'Owen Cooper'
p2037
F0.66666666666666663
sS'Serge Rielau'
p2038
F0.16666666666666666
sS'Cyril U. Orji'
p2039
F0.44444444444444442
sS'Edwin R. Lassettre'
p2040
F1
sS'Gang Luo'
p2041
F0.11764705882352941
sS'Abel Weinrib'
p2042
F1
sS'Ulrich G\xc3\xbcntzer'
p2043
F0.10000000000000001
sS'Panagiotis G. Ipeirotis'
p2044
F0.16666666666666666
sS'N. Suzuki'
p2045
F1
sS'Alexander Borgida'
p2046
F0.18867924528301888
sS'Donko Donjerkovic'
p2047
F0.5714285714285714
sS'Eduardo Freire Nakamura'
p2048
F1
sS'Wang-Chien Lee'
p2049
F0.034188034188034191
sS'Eugene Agichtein'
p2050
F0.056603773584905662
sS'Shailesh Agrawal'
p2051
F1
sS'Boon Thau Loo'
p2052
F0.42857142857142855
sS'Michael Freeston'
p2053
F0.80000000000000004
sS'George Jyh-Shian Chang'
p2054
F1
sS'Xiaoxin Yin'
p2055
F0.1111111111111111
sS'Prasadram Ramachandra'
p2056
F1
sS'Patricia P. Griffiths'
p2057
F1
sS'H. Chen'
p2058
F1
sS'Mukesh K. Mohania'
p2059
F0.080000000000000002
sS'Paul F. Wilms'
p2060
F0.80000000000000004
sS'Ping Xu'
p2061
F1
sS'Naftaly H. Minsky'
p2062
F0.40000000000000002
sS'Sudipto Guha'
p2063
F0.087912087912087919
sS'Yale N. Patt'
p2064
F1
sS'Pedro Bizarro'
p2065
F0.66666666666666663
sS'Patrick Ziegler'
p2066
F0.33333333333333331
sS'C. K. Tan'
p2067
F0.80000000000000004
sS'Hartmut Liefke'
p2068
F1
sS'Oliver Po'
p2069
F0.15384615384615385
sS'Gita Gopal'
p2070
F1
sS'Gaetano Borriello'
p2071
F0.66666666666666663
sS'Yehoshua Sagiv'
p2072
F0.01644398766700925
sS'Mihalis Yannakakis'
p2073
F0.018867924528301886
sS'Edward Hung'
p2074
F0.125
sS'Larry Brown'
p2075
F1
sS'Inderpal Singh Mumick'
p2076
F0.1206896551724138
sS'Y. Dora Cai'
p2077
F0.66666666666666663
sS'Omar Benjelloun'
p2078
F0.11428571428571428
sS'Mark N. Haynie'
p2079
F1
sS'Robert Gruber'
p2080
F0.59999999999999998
sS'Michael D. Martin'
p2081
F1
sS'Fran\xc3\xa7ois Bry'
p2082
F0.068965517241379309
sS'Ilker Altintas'
p2083
F1
sS'Meikel P\xc3\xb6ss'
p2084
F0.33333333333333331
sS'Walter H. Kohler'
p2085
F0.33333333333333331
sS'Xianging Liu'
p2086
F1
sS'Diane L. Davison'
p2087
F0.66666666666666663
sS'Wei Li'
p2088
F0.080000000000000002
sS'Theo Vassilakis'
p2089
F1
sS'Joseph A. Wald'
p2090
F1
sS'Bill Robertson'
p2091
F1
sS'Olga Papaemmanouil'
p2092
F0.42857142857142855
sS'V. K. Raman'
p2093
F1
sS'Steven P. Callahan'
p2094
F1
sS'Michael Peter Haustein'
p2095
F0.66666666666666663
sS'Francesco Antonacci'
p2096
F0.66666666666666663
sS'Hidehiko Tanaka'
p2097
F0.25
sS'Patrick Valduriez'
p2098
F0.031331592689295036
sS'K. Mani Chandy'
p2099
F0.66666666666666663
sS'Walter G. Wilson'
p2100
F0.66666666666666663
sS'Douglas B. Lenat'
p2101
F0.02197802197802198
sS'Erik Meijer'
p2102
F1
sS'S. C. Hansen'
p2103
F1
sS'Raman Chandrasekar'
p2104
F0.33333333333333331
sS'Zhen Xiao'
p2105
F0.33333333333333331
sS'Giora Slutzki'
p2106
F0.33333333333333331
sS'Margaret H. Butler'
p2107
F1
sS'Jeffrey F. Naughton'
p2108
F0.029896907216494847
sS'Subhasri Duttagupta'
p2109
F1
sS'Rudi Belotti'
p2110
F1
sS'V\xc3\xa9ronique Benzaken'
p2111
F0.16666666666666666
sS'Kyuseok Shim'
p2112
F0.04778156996587031
sS'Peter Scheuermann'
p2113
F0.10344827586206896
sS'Sabine Massmann'
p2114
F0.66666666666666663
sS'Kamran Parsaye-Ghomi'
p2115
F1
sS'Jagannathan Srinivasan'
p2116
F0.016528925619834711
sS'Brian Becker'
p2117
F1
sS'Morton M. Astrahan'
p2118
F0.80000000000000004
sS'Wai Tak Theodora Yeung'
p2119
F1
sS'Kurt Rothermel'
p2120
F0.66666666666666663
sS'Fran\xc3\xa7ois Bancilhon'
p2121
F0.077669902912621352
sS'Nalini Venkatasubramanian'
p2122
F0.33333333333333331
sS'Christos H. Papadimitriou'
p2123
F0.011976047904191617
sS'Akira Kawaguchi'
p2124
F1
sS'Gopalan Arun'
p2125
F0.66666666666666663
sS'Anupam Bhide'
p2126
F0.20000000000000001
sS'Shivnath Babu'
p2127
F0.15384615384615385
sS'Robert M. Pecherer'
p2128
F0.80000000000000004
sS'James Chong'
p2129
F1
sS'K. Bernhard Schiefer'
p2130
F0.18181818181818182
sS'Mary E. S. Loomis'
p2131
F1
sS'Tolga Yurek'
p2132
F1
sS'Susan B. Davidson'
p2133
F0.052173913043478258
sS'Yue Pan'
p2134
F0.16666666666666666
sS'Srikanth Bellamkonda'
p2135
F0.19047619047619047
sS'Val Tannen'
p2136
F0.16666666666666666
sS'Bernhard Convent'
p2137
F1
sS'Tao Cheng'
p2138
F0.66666666666666663
sS'Marcel Kornacker'
p2139
F0.44444444444444442
sS'Yuguo Liu'
p2140
F1
sS'Donald Kossmann'
p2141
F0.051376146788990829
sS'Philippe Bonnet'
p2142
F0.29411764705882354
sS'Benny Kimelfeld'
p2143
F0.20000000000000001
sS'Chuen-Sing Yeung'
p2144
F1
sS'Ying Zhang'
p2145
F0.050000000000000003
sS'Martin Gudgin'
p2146
F1
sS'Hartmut Wedekind'
p2147
F0.33333333333333331
sS'KayLiang Ong'
p2148
F1
sS'J. Wesley Graham'
p2149
F0.80000000000000004
sS'Jorge B. Bocca'
p2150
F0.5
sS'Mohamed G. Gouda'
p2151
F0.5
sS'Anil Nori'
p2152
F0.21818181818181817
sS'Gautam Das'
p2153
F0.11678832116788321
sS'Yongdong Wang'
p2154
F0.80000000000000004
sS'Michel Scholl'
p2155
F0.29999999999999999
sS'Philippe Pucheral'
p2156
F0.061855670103092786
sS'Dirk Lehmann'
p2157
F1
sS'M. Muralikrishna'
p2158
F0.16666666666666666
sS'Ashwin Machanavajjhala'
p2159
F0.26666666666666666
sS'Lyman Do'
p2160
F0.2857142857142857
sS'Tirthankar Lahiri'
p2161
F0.2857142857142857
sS'Tal Zur'
p2162
F1
sS'Mark A. Roth'
p2163
F1
sS'Thomas Baby'
p2164
F0.66666666666666663
sS'Kenn Gardels'
p2165
F1
sS'Christos Tryfonopoulos'
p2166
F0.15384615384615385
sS'Haixun Wang'
p2167
F0.020114942528735632
sS'Patrick Stahlberg'
p2168
F1
sS'Sanjeev Khanna'
p2169
F0.2857142857142857
sS'Abraham Silberschatz'
p2170
F0.030612244897959183
sS'Dik Lun Lee'
p2171
F0.044444444444444446
sS'Marina Moscarini'
p2172
F0.10526315789473684
sS'Christian A. Lang'
p2173
F0.33333333333333331
sS'Lucian Popa'
p2174
F0.10126582278481013
sS'Ilsoo Ahn'
p2175
F0.54545454545454541
sS'Jun Zhang'
p2176
F0.07407407407407407
sS'Oliver Spatscheck'
p2177
F0.18181818181818182
sS'David Trace'
p2178
F1
sS'Dirk D\xc3\xbcllmann'
p2179
F1
sS'Yang Zhang'
p2180
F0.5
sS'David R. Karger'
p2181
F0.050000000000000003
sS'Lorenzo Saladini'
p2182
F1
sS'Alan David Fekete'
p2183
F1
sS'Peter Peinl'
p2184
F0.33333333333333331
sS'Navin Kabra'
p2185
F0.5714285714285714
sS'V. S. Subrahmanian'
p2186
F0.080000000000000002
sS'Christian Plattner'
p2187
F1
sS'Ravi Kumar'
p2188
F0.016
sS"Ken'ichi Ishikawa"
p2189
F1
sS'Victor Cheng'
p2190
F0.66666666666666663
sS'Luis Gravano'
p2191
F0.082568807339449546
sS'Guoliang Li'
p2192
F0.17391304347826086
sS'Mourad Ouzzani'
p2193
F0.125
sS'Harry B. Hunt III'
p2194
F0.5
sS'Thomas H\xc3\xb6ppler'
p2195
F1
sS'Mohammad Sadoghi'
p2196
F1
sS'Yujun Wang'
p2197
F1
sS'Dong Xin'
p2198
F0.10666666666666667
sS'Norbert Widmann'
p2199
F0.33333333333333331
sS'Hongkun Zhao'
p2200
F0.44444444444444442
sS'Gregory D. Speegle'
p2201
F0.66666666666666663
sS'Gregory Piatetsky-Shapiro'
p2202
F0.047619047619047616
sS'Ahmed K. Elmagarmid'
p2203
F0.033898305084745763
sS'Stephen Blott'
p2204
F0.10526315789473684
sS'Hongyi Hu'
p2205
F1
sS'Chris Nyberg'
p2206
F1
sS'Matthew O. Ward'
p2207
F0.5714285714285714
sS'Xin Dong'
p2208
F0.38095238095238093
sS'Mary Tork Roth'
p2209
F0.33333333333333331
sS'Lin Qiao'
p2210
F0.18181818181818182
sS'Shrikanth Shankar'
p2211
F0.66666666666666663
sS'Peter Pistor'
p2212
F0.18181818181818182
sS'Biao Chen'
p2213
F1
sS'Lawrence D. Bergman'
p2214
F0.5714285714285714
sS'Mario Terranova'
p2215
F1
sS'Margaret E. Connell'
p2216
F0.15384615384615385
sS'Andreas Reuter'
p2217
F0.086956521739130432
sS'Kristina Lerman'
p2218
F0.66666666666666663
sS'Jirun Dong'
p2219
F1
sS'Wenjie Zhang'
p2220
F0.66666666666666663
sS'Philipp Kranen'
p2221
F1
sS'Stratis Viglas'
p2222
F0.16
sS'Khanh Vu'
p2223
F0.5
sS'Ewa Jaslikowska'
p2224
F1
sS'Bruce Hillyer'
p2225
F0.5
sS'Larry Kerschberg'
p2226
F0.375
sS'Swarup Acharya'
p2227
F0.26666666666666666
sS'Jiong Yang'
p2228
F0.028169014084507043
sS'Ross A. Overbeek'
p2229
F1
sS'Richard Frank'
p2230
F0.66666666666666663
sS'Barinderpal Singh Mumick'
p2231
F1
sS'Dhamir N. Mannai'
p2232
F1
sS'Kyriakos Mouratidis'
p2233
F0.375
sS'Jianhua Feng'
p2234
F0.076923076923076927
sS'Nikos Mamoulis'
p2235
F0.065934065934065936
sS'Michael Benedikt'
p2236
F0.037735849056603772
sS'Paul Patrick'
p2237
F1
sS'Li-Yan Yuan'
p2238
F0.060606060606060608
sS'Miguel Castro'
p2239
F1
sS'Tohru Moto-Oka'
p2240
F1
sS'Raymond Fadous'
p2241
F1
sS'SungRan Cho'
p2242
F0.40000000000000002
sS'Divyakant Agrawal'
p2243
F0.026743075453677174
sS'Patrick C. K. Hung'
p2244
F1
sS'Xian-He Sun'
p2245
F1
sS'Yirong Xu'
p2246
F0.14814814814814814
sS'Yuhan Cai'
p2247
F0.80000000000000004
sS'Amit Chandel'
p2248
F0.18181818181818182
sS'Randy H. Katz'
p2249
F0.25
sS'S. Choo'
p2250
F0.80000000000000004
sS'Li Ma'
p2251
F0.22222222222222221
sS'Graham Cormode'
p2252
F0.09375
sS'Tansel Okay'
p2253
F1
sS'Samuel Madden'
p2254
F0.087999999999999995
sS'Avishai Wool'
p2255
F1
sS'Davood Rafiei'
p2256
F0.26666666666666666
sS'Enrico Franconi'
p2257
F0.40000000000000002
sS'G. Michael Schneider'
p2258
F1
sS'Carlos Ordonez'
p2259
F0.30769230769230771
sS'Apostol Natsev'
p2260
F0.40000000000000002
sS'David Wai-Lok Cheung'
p2261
F0.015267175572519083
sS'Gokhan Kurt'
p2262
F1
sS'Stefan Holland'
p2263
F0.66666666666666663
sS'Michael J. Wynblatt'
p2264
F1
sS'Khaled M. Bugrara'
p2265
F1
sS'Per-\xc3\x85ke Larson'
p2266
F0.063694267515923567
sS'Sunil K. Sarin'
p2267
F0.5
sS'Eduardo B. Fern\xc3\xa1ndez'
p2268
F0.1111111111111111
sS'Svetlozar Nestorov'
p2269
F0.44444444444444442
sS'D. Jagannathan'
p2270
F1
sS'Peter Piatko'
p2271
F1
sS'Yali Zhu'
p2272
F0.44444444444444442
sS'Denis Lee'
p2273
F1
sS'Latha S. Colby'
p2274
F0.30769230769230771
sS'Vinayak R. Borkar'
p2275
F0.33333333333333331
sS'Chi-Yuan Lo'
p2276
F1
sS'Elke Achtert'
p2277
F0.13333333333333333
sS'Runying Mao'
p2278
F1
sS'Jamie Taylor'
p2279
F1
sS'Brian Neil Levine'
p2280
F0.66666666666666663
sS'Alexey Pryakhin'
p2281
F0.034482758620689655
sS'Boris Kogan'
p2282
F0.66666666666666663
sS'Jun Fang'
p2283
F1
sS'Zhijun Yin'
p2284
F0.80000000000000004
sS'G. Krenz'
p2285
F1
sS'Louxin Zhang'
p2286
F1
sS'Ke Yang'
p2287
F0.66666666666666663
sS'Sharon McCure Kuck'
p2288
F0.66666666666666663
sS'Stephen Fox'
p2289
F0.40000000000000002
sS'Anja Theobald'
p2290
F0.2857142857142857
sS'Lihyuarn L. Chang'
p2291
F1
sS'James P. Fry'
p2292
F0.18181818181818182
sS'Arpit Jain'
p2293
F1
sS'Ronald Fagin'
p2294
F0.046692607003891051
sS'Andreas M\xc3\xbcller'
p2295
F1
sS'Roberto Zicari'
p2296
F0.125
sS'Erika Anderson'
p2297
F1
sS'Yuri Kosharovsky'
p2298
F1
sS'Nikos Giatrakos'
p2299
F1
sS'Robert S. Epstein'
p2300
F0.66666666666666663
sS'Catharine M. Wyss'
p2301
F0.40000000000000002
sS'Wei-Ying Ma'
p2302
F0.0030721966205837174
sS'Xiaohui Yu'
p2303
F0.20000000000000001
sS'M. Nemeth'
p2304
F0.66666666666666663
sS'Elke Radeke'
p2305
F1
sS'Fereidoon Sadri'
p2306
F0.10526315789473684
sS'Claudio Petrone'
p2307
F1
sS'Richard J. Lipton'
p2308
F0.40000000000000002
sS'Jason Chionh'
p2309
F0.66666666666666663
sS'Daniel H. Fishman'
p2310
F0.5
sS'Mosh\xc3\xa9 M. Zloof'
p2311
F0.2857142857142857
sS'Henry F. Korth'
p2312
F0.080000000000000002
sS'Edward Y. Chang'
p2313
F0.082191780821917804
sS'Felipe Cari\xc3\xb1o'
p2314
F0.071428571428571425
sS'Chen Qun'
p2315
F1
sS'Banu \xc3\x96zden'
p2316
F0.07407407407407407
sS'Rowland R. Johnson'
p2317
F0.66666666666666663
sS'Stelios Paparizos'
p2318
F0.40000000000000002
sS'Richard L. Cole'
p2319
F0.5
sS'Dan Olteanu'
p2320
F0.064516129032258063
sS'Geoffrey Phipps'
p2321
F0.80000000000000004
sS'Byron Choi'
p2322
F0.086956521739130432
sS'Domenico Sacc\xc3\xa0'
p2323
F0.083333333333333329
sS'Jan Paredaens'
p2324
F0.065217391304347824
sS'Hejun Wu'
p2325
F1
sS'Michael Steinbrunn'
p2326
F0.33333333333333331
sS'Nicolas Spyratos'
p2327
F0.053333333333333337
sS'Yuan Wang'
p2328
F0.16666666666666666
sS'Z. Meral \xc3\x96zsoyoglu'
p2329
F0.10434782608695652
sS'Richard T. Snodgrass'
p2330
F0.086330935251798566
sS'Yonghui Wang'
p2331
F1
sS'Nicholas J. Giordano'
p2332
F1
sS'Amit Manjhi'
p2333
F0.44444444444444442
sS'Gang Zhou'
p2334
F0.5
sS'Ran Wolff'
p2335
F0.13333333333333333
sS'Wilson C. Hsieh'
p2336
F1
sS'D. A. Beckley'
p2337
F1
sS'Cem Evrendilek'
p2338
F0.66666666666666663
sS'Zohreh Nazeri'
p2339
F0.5
sS'Shinsei Tazawa'
p2340
F0.66666666666666663
sS'J. C. Lagarias'
p2341
F1
sS'Bartek Kiepuszewski'
p2342
F1
sS'Joachim Thomas'
p2343
F0.40000000000000002
sS'Hongjun Lu'
p2344
F0.021276595744680851
sS'Johannes Klein'
p2345
F0.5714285714285714
sS'Donald R. Slutz'
p2346
F0.66666666666666663
sS'Dina Bitton'
p2347
F0.15384615384615385
sS'Peter J. Haas'
p2348
F0.092526690391459068
sS'Uri Shaft'
p2349
F0.5
sS'Dhaval Patel'
p2350
F1
sS'Jayant Chaudhary'
p2351
F1
sS'George Karabatis'
p2352
F1
sS'Heikki Mannila'
p2353
F0.0027359781121751026
sS'Hans-Peter Kriegel'
p2354
F0.029488291413703384
sS'James Cheney'
p2355
F0.5
sS'Marcel Kutsch'
p2356
F0.40000000000000002
sS'Philippe Rigaux'
p2357
F0.25
sS'Won Kim'
p2358
F0.073732718894009217
sS'Manli Zhu'
p2359
F0.66666666666666663
sS'Philipp R\xc3\xb6sch'
p2360
F0.66666666666666663
sS'Roger King'
p2361
F0.15873015873015872
sS'Xiong Wang'
p2362
F0.20000000000000001
sS'Nathan Goodman'
p2363
F0.034883720930232558
sS'Aleksandr Voskoboynik'
p2364
F1
sS'Jarek Gryz'
p2365
F0.11764705882352941
sS'Gael N. Buckley'
p2366
F0.5
sS'Stephen W. Sherman'
p2367
F1
sS'T. Walters'
p2368
F1
sS'Ramesh C. Agarwal'
p2369
F0.30769230769230771
sS'Vincent Chu'
p2370
F1
sS'Jordan Raddick'
p2371
F1
sS'Ugur Halici'
p2372
F1
sS'Samarth Prakash'
p2373
F1
sS'Alun D. Preece'
p2374
F0.40000000000000002
sS'Eric C. Cooper'
p2375
F1
sS'Johannes Gehrke'
p2376
F0.060258249641319941
sS'Yunyue Zhu'
p2377
F0.3125
sS'Lawrence Snyder'
p2378
F1
sS'Gary Larson'
p2379
F1
sS'Simon J. Puglisi'
p2380
F1
sS'Eman Anwar'
p2381
F0.66666666666666663
sS'Aidong Zhang'
p2382
F0.034482758620689655
sS'Seth Cohen'
p2383
F1
sS'Mingxi Wu'
p2384
F0.40000000000000002
sS'Nilesh Bansal'
p2385
F0.2857142857142857
sS'Ling Liu'
p2386
F0.030769230769230771
sS'Mirek Riedewald'
p2387
F0.25
sS'Qi Cheng'
p2388
F0.66666666666666663
sS'Hao Cheng'
p2389
F1
sS'Ivan Popivanov'
p2390
F0.5
sS'Stratos Idreos'
p2391
F0.36363636363636365
sS'Gregory Sadowski'
p2392
F1
sS'Rui Zhang 0003'
p2393
F0.13333333333333333
sS'Anand Ranganathan'
p2394
F0.2857142857142857
sS'Felix Naumann'
p2395
F0.039215686274509803
sS'Mohit Thatte'
p2396
F1
sS'Sebastian B\xc3\xb6ttger'
p2397
F1
sS'Motomichi Toyama'
p2398
F0.25
sS'Yat-Sang Kwong'
p2399
F1
sS'Xiaokui Xiao'
p2400
F0.25806451612903225
sS'Bruce G. Lindsay'
p2401
F0.084507042253521125
sS'James Davis'
p2402
F0.10526315789473684
sS'Jeffrey S. Chase'
p2403
F0.66666666666666663
sS'Matthias Jarke'
p2404
F0.1095890410958904
sS'Thomas B. Steel Jr.'
p2405
F0.66666666666666663
sS'Pranay Jain'
p2406
F1
sS'Ali Morfeq'
p2407
F1
sS'Toby J. Teorey'
p2408
F0.16666666666666666
sS'Haris Georgiadis'
p2409
F0.66666666666666663
sS'Paolo Missier'
p2410
F0.18181818181818182
sS'Michael Vassilakopoulos'
p2411
F0.66666666666666663
sS'Samer Nassar'
p2412
F1
sS'Lionel M. Ni'
p2413
F0.66666666666666663
sS'Carsten Binnig'
p2414
F0.44444444444444442
sS'Kian-Lee Tan'
p2415
F0.032028469750889681
sS'Peter Muth'
p2416
F0.17142857142857143
sS'Olga De Troyer'
p2417
F0.5
sS'Amit Jasuja'
p2418
F1
sS'Jurgen Annevelink'
p2419
F0.66666666666666663
sS'Carlotta Domeniconi'
p2420
F0.029411764705882353
sS'Andreas Hutflesz'
p2421
F0.2857142857142857
sS'Peter Z. Revesz'
p2422
F0.16666666666666666
sS'Rob Cardwell'
p2423
F1
sS'Jim Stamos'
p2424
F0.80000000000000004
sS'Darrell Woelk'
p2425
F0.27906976744186046
sS'Rajmohan Rajagopalan'
p2426
F1
sS'Goetz Graefe'
p2427
F0.098360655737704916
sS'Paul Benninghoff'
p2428
F1
sS'Vassilis Athitsos'
p2429
F0.36363636363636365
sS'Silvana Castano'
p2430
F0.5
sS'Dan E. Willard'
p2431
F0.66666666666666663
sS'Prasad Deshpande'
p2432
F0.19354838709677419
sS'Yandong Cai'
p2433
F0.5
sS'Elham Fazli'
p2434
F1
sS'George Karypis'
p2435
F0.011049723756906077
sS'Paolo Papotti'
p2436
F0.25
sS'Gale Martin'
p2437
F0.80000000000000004
sS'Ying Lu'
p2438
F0.40000000000000002
sS'John Woodfill'
p2439
F0.15384615384615385
sS'J. G. Malkin'
p2440
F1
sS'Yuh-Ming Shyy'
p2441
F0.80000000000000004
sS'Yi Lin'
p2442
F0.5
sS'Donald S. Fussell'
p2443
F0.25
sS'Jing Jiang'
p2444
F0.2857142857142857
sS'Naveen Ashish'
p2445
F0.5
sS'Monica Marcus'
p2446
F1
sS'Ying Chen'
p2447
F0.2857142857142857
sS'Angelo Pruscino'
p2448
F0.66666666666666663
sS'David W. Embley'
p2449
F0.2857142857142857
sS'Roger S. Barga'
p2450
F0.14999999999999999
sS'K. A. Hazboun'
p2451
F1
sS'Lawrence A. Rowe'
p2452
F0.23255813953488372
sS'Feng Pan'
p2453
F0.16
sS'Mauricio A. Hern\xc3\xa1ndez'
p2454
F0.17241379310344829
sS'Mohamed F. Mokbel'
p2455
F0.035928143712574849
sS'Klaus K\xc3\xbcspert'
p2456
F0.2857142857142857
sS'Jerry Winkler'
p2457
F1
sS'Shengfei Shi'
p2458
F0.66666666666666663
sS'Ron Eguchi'
p2459
F1
sS'Brian Beckman'
p2460
F1
sS'Masaya Nakayama'
p2461
F0.33333333333333331
sS'Gerd Kachel'
p2462
F1
sS'Madhu Reddy'
p2463
F1
sS'Kristoffer H\xc3\xb8gsbro Rose'
p2464
F0.66666666666666663
sS'Hyoungmin Park'
p2465
F1
sS'Salvatore Raunich'
p2466
F0.66666666666666663
sS'Esen A. Ozkarahan'
p2467
F0.0625
sS'Ali Khoshgozaran'
p2468
F1
sS'Mark Hapner'
p2469
F1
sS'Luc Bouganim'
p2470
F0.041237113402061855
sS'Guido Blees'
p2471
F1
sS'Arjen P. de Vries'
p2472
F0.02564102564102564
sS'Jaewoo Kang'
p2473
F0.42857142857142855
sS'Leonidas Galanis'
p2474
F0.33333333333333331
sS'Huahai He'
p2475
F0.2857142857142857
sS'H\xc3\xa9ctor J. Hern\xc3\xa1ndez'
p2476
F0.18181818181818182
sS'Daniel Alexander Ford'
p2477
F0.40000000000000002
sS'Hetal Thakkar'
p2478
F0.15384615384615385
sS'Spyros Ligoudistianos'
p2479
F1
sS'Martin Hardwick'
p2480
F0.33333333333333331
sS'Heiko M\xc3\xbcller'
p2481
F0.66666666666666663
sS'Myron Flickner'
p2482
F0.66666666666666663
sS'Weihua Wu'
p2483
F1
sS'Kristin Tufte'
p2484
F0.5
sS'Christopher Meek'
p2485
F0.057142857142857141
sS'Thomas G. Marr'
p2486
F0.66666666666666663
sS'Amit Shukla'
p2487
F0.40000000000000002
sS'Rafael Alonso'
p2488
F0.25
sS'Wilburt Labio'
p2489
F0.21428571428571427
sS'S. Muthu Muthukrishnan'
p2490
F1
sS'Karsten M. Borgwardt'
p2491
F0.11764705882352941
sS'Jack A. Orenstein'
p2492
F0.22727272727272727
sS'Damien Sereni'
p2493
F0.66666666666666663
sS'Patrick Connor Linskey'
p2494
F1
sS'Shahram Ghandeharizadeh'
p2495
F0.10909090909090909
sS'Huan Liu'
p2496
F0.006369426751592357
sS'Beng Chin Ooi'
p2497
F0.023121387283236993
sS'Klaus Peithner'
p2498
F0.18181818181818182
sS'Tom Barclay'
p2499
F0.80000000000000004
sS'Dongmei Ren'
p2500
F0.40000000000000002
sS'Yechiam Yemini'
p2501
F1
sS'Joseph M. Hellerstein'
p2502
F0.058887677208287893
sS'J. R. Jordan'
p2503
F1
sS'Marios Hadjieleftheriou'
p2504
F0.20000000000000001
sS'Srinivasan Parthasarathy 0002'
p2505
F0.66666666666666663
sS'Bruce D. Parrello'
p2506
F1
sS'Jing Jin'
p2507
F0.66666666666666663
sS'Glenn R. Thompson'
p2508
F0.66666666666666663
sS'Thomas Heinis'
p2509
F1
sS'Karen R. Sollins'
p2510
F1
sS'HweeHwa Pang'
p2511
F0.1875
sS'Kyoji Kawagoe'
p2512
F0.66666666666666663
sS'Axel M\xc3\xb6nkeberg'
p2513
F0.2857142857142857
sS'David J. DeWitt'
p2514
F0.032038834951456312
sS'Robert Ennals'
p2515
F1
sS'Wen Qiang Wang'
p2516
F0.66666666666666663
sS'Zenita Ichhaporia'
p2517
F1
sS'Alberto O. Mendelzon'
p2518
F0.047477744807121663
sS'Hari Balakrishnan'
p2519
F0.42857142857142855
sS'C. Gupta'
p2520
F0.66666666666666663
sS'Eui-Hong Han'
p2521
F0.15384615384615385
sS'Jianhua Lv'
p2522
F1
sS'Curtis Elsbernd'
p2523
F1
sS'Denise Draper'
p2524
F0.5714285714285714
sS'Chih-Chen Lin'
p2525
F0.66666666666666663
sS'Christoph H\xc3\xbcbel'
p2526
F1
sS'Yunhao Liu'
p2527
F0.2857142857142857
sS'Chun-Hee Lee'
p2528
F1
sS'Laurent Mignet'
p2529
F0.14285714285714285
sS'Domenico Lembo'
p2530
F0.13333333333333333
sS'Vipul Kashyap'
p2531
F0.5
sS'Caetano Traina Jr.'
p2532
F0.14285714285714285
sS'Jos\xc3\xa9 Meseguer'
p2533
F1
sS'Stefano Pavani'
p2534
F1
sS'Qiming Chen'
p2535
F0.12
sS'Jeffrey Scott Vitter'
p2536
F0.079365079365079361
sS'Iakovos Motakis'
p2537
F1
sS'Haran Boral'
p2538
F0.32258064516129031
sS'Hongfei Guo'
p2539
F0.54545454545454541
sS'Jianlin Feng'
p2540
F0.66666666666666663
sS'Richard A. Hankins'
p2541
F0.33333333333333331
sS'L. Maugis'
p2542
F1
sS'Sibel Adali'
p2543
F0.54545454545454541
sS'Vladislav Shkapenyuk'
p2544
F0.23255813953488372
sS'Kenneth A. Ross'
p2545
F0.066666666666666666
sS'Emy Tseng'
p2546
F1
sS'Yelena Yesha'
p2547
F0.2857142857142857
sS'Allison Woodruff'
p2548
F0.33333333333333331
sS'William J. Dally'
p2549
F0.66666666666666663
sS'Vipin Kumar'
p2550
F0.012048192771084338
sS'L. Edwin McKenzie'
p2551
F1
sS'Tzi-cker Chiueh'
p2552
F0.125
sS'Miguel Ferreira'
p2553
F0.66666666666666663
sS'Basuki Soetarman'
p2554
F1
sS'Katarzyna Smaga'
p2555
F1
sS'Christoph F. Eick'
p2556
F0.083333333333333329
sS'Nilesh N. Dalvi'
p2557
F0.17391304347826086
sS'Sailesh Krishnamurthy'
p2558
F0.2608695652173913
sS'Michael Ubell'
p2559
F1
sS'Yezdi Lashkari'
p2560
F0.66666666666666663
sS'Xiaoyan Yang'
p2561
F1
sS'Adarsh Pannu'
p2562
F1
sS'Sally A. Goldman'
p2563
F0.07407407407407407
sS'Kevin Chen-Chuan Chang'
p2564
F0.097264437689969604
sS'Hanuma Kodavalla'
p2565
F0.66666666666666663
sS'Saar Cohen'
p2566
F1
sS'Helmut Th\xc3\xb6ne'
p2567
F0.66666666666666663
sS'Christian Hidber'
p2568
F1
sS'Minqi Zhou'
p2569
F1
sS'Jesse Anton'
p2570
F1
sS'Anthony K. H. Tung'
p2571
F0.066445182724252497
sS'Heng Tao Shen'
p2572
F0.028985507246376812
sS'Christopher N. Bond'
p2573
F0.66666666666666663
sS'Baihua Zheng'
p2574
F0.068965517241379309
sS'Prabhu Ram'
p2575
F0.66666666666666663
sS'Wolf-Tilo Balke'
p2576
F0.18181818181818182
sS'Carlos Eduardo Scheidegger'
p2577
F0.80000000000000004
sS'A. Mahboob'
p2578
F1
sS'G. C. H. Sharman'
p2579
F0.66666666666666663
sS'Craig Silverstein'
p2580
F0.25
sS'Fatma \xc3\x96zcan'
p2581
F0.38095238095238093
sS'Jan Van den Bussche'
p2582
F0.0095238095238095247
sS'Jan vandenBerg'
p2583
F1
sS'Zheng Zeng'
p2584
F1
sS'I. V. Ramakrishnan'
p2585
F0.040816326530612242
sS'Minos N. Garofalakis'
p2586
F0.059016393442622953
sS'Sougata Mukherjea'
p2587
F0.15384615384615385
sS'Andrew Nierman'
p2588
F0.66666666666666663
sS'Stavros Christodoulakis'
p2589
F0.14583333333333334
sS'Laura M. Haas'
p2590
F0.10596026490066225
sS'Bin He'
p2591
F0.30303030303030304
sS'Fran\xc3\xa7ois Llirbat'
p2592
F0.25
sS'Michael Welge'
p2593
F1
sS'Joost Verhofstad'
p2594
F1
sS'Ram Keralapura'
p2595
F1
sS'Siva Ravada'
p2596
F0.26666666666666666
sS'Wee Siong Ng'
p2597
F0.44444444444444442
sS'Dirk Wodtke'
p2598
F0.66666666666666663
sS'David Vaskevitch'
p2599
F0.66666666666666663
sS'Carlo Batini'
p2600
F0.66666666666666663
sS'Paolo Atzeni'
p2601
F0.089285714285714288
sS'Sankar Subramanian'
p2602
F0.19047619047619047
sS'Li Chen'
p2603
F0.35294117647058826
sS'Gabriel Ghinita'
p2604
F0.40000000000000002
sS'Remzi H. Arpaci-Dusseau'
p2605
F1
sS'Ken C. K. Lee'
p2606
F0.33333333333333331
sS'Bruno Becker'
p2607
F1
sS'Saul Schleimer'
p2608
F1
sS'R. Kent Wenger'
p2609
F0.80000000000000004
sS'J\xc3\xa9r\xc3\xb4me Sim\xc3\xa9on'
p2610
F0.13636363636363635
sS'Ralph D. Semmel'
p2611
F0.66666666666666663
sS'M. S. Kubicar'
p2612
F1
sS'Christos Faloutsos'
p2613
F0.017932987258140631
sS'Jordan Walke'
p2614
F1
sS'Nebojsa Stefanovic'
p2615
F0.5
sS'Di Yang'
p2616
F0.66666666666666663
sS'Paul Melmom'
p2617
F1
sS'Eugene Wong'
p2618
F0.2857142857142857
sS'Guido Moerkotte'
p2619
F0.040697674418604654
sS'Matthias Nicola'
p2620
F0.16666666666666666
sS'Simon Sou'
p2621
F1
sS'Kirby Zhang'
p2622
F1
sS'Bruce Mann'
p2623
F1
sS'Yuan Ni'
p2624
F0.5
sS'Azbayar Demberel'
p2625
F1
sS'Wenbin Ma'
p2626
F1
sS'Peter M. G. Apers'
p2627
F0.027027027027027029
sS'Annamaria Auddino'
p2628
F1
sS'Shi-Kuo Chang'
p2629
F1
sS'Anish Das Sarma'
p2630
F0.2857142857142857
sS'Daniel S. Weld'
p2631
F0.019753086419753086
sS'Stefan Brecheisen'
p2632
F0.20000000000000001
sS'Daniel Shawcross Wilkerson'
p2633
F1
sS'Hannu Peltonen'
p2634
F1
sS'Shamim A. Naqvi'
p2635
F0.068965517241379309
sS'Abhinandan Das'
p2636
F0.5
sS'Kurt Ingenthron'
p2637
F1
sS'Antonios Deligiannakis'
p2638
F0.40000000000000002
sS"David R. O'Hallaron"
p2639
F1
sS'Alan Jeffrey'
p2640
F1
sS'H. Miranda'
p2641
F1
sS'Jennifer Widom'
p2642
F0.040697674418604654
sS'Xinhuan Zheng'
p2643
F1
sS'Richard D. Sisson Jr.'
p2644
F0.5
sS'Goce Trajcevski'
p2645
F0.1111111111111111
sS'Rui Wang'
p2646
F0.66666666666666663
sS'James W. Warner'
p2647
F0.5
sS'Waheed Qureshi'
p2648
F0.66666666666666663
sS'W. Kevin Wilkinson'
p2649
F0.40000000000000002
sS'Jochen Van den Bercken'
p2650
F0.10000000000000001
sS'Joachim W. Schmidt'
p2651
F0.054054054054054057
sS'Michael Scheible'
p2652
F1
sS'E. F. Codd'
p2653
F0.66666666666666663
sS'Thomas Bergstraesser'
p2654
F1
sS'Tuong C. Truong'
p2655
F0.66666666666666663
sS'Alin Deutsch'
p2656
F0.16666666666666666
sS'Mokhtar Kandil'
p2657
F0.66666666666666663
sS"Shin'ichi Satoh"
p2658
F0.2857142857142857
sS'Lothar F. Mackert'
p2659
F0.66666666666666663
sS'Xiaofeng Meng'
p2660
F0.11764705882352941
sS'David Rozenshtein'
p2661
F0.44444444444444442
sS'Igor Tatarinov'
p2662
F0.40000000000000002
sS'Bassel Ojjeh'
p2663
F1
sS'Ralf Kramer'
p2664
F0.5
sS'Gaurav Vijayvargiya'
p2665
F0.66666666666666663
sS'Marco Magnante'
p2666
F1
sS'Jun Rao'
p2667
F0.25641025641025639
sS'Herman Lam'
p2668
F0.25
sS'Yoonkyong Lee'
p2669
F0.66666666666666663
sS'AnHai Doan'
p2670
F0.045045045045045043
sS'Jaideep Srivastava'
p2671
F0.028571428571428571
sS'Tim Kraska'
p2672
F0.66666666666666663
sS'Srinivasan Parthasarathy'
p2673
F0.0062893081761006293
sS'Robert Adams'
p2674
F1
sS'Sunil Prabhakar'
p2675
F0.041666666666666664
sS'William I. Chang'
p2676
F1
sS'John A. Stankovic'
p2677
F0.5
sS'Lawrence Chung'
p2678
F0.66666666666666663
sS'Andrew E. Wade'
p2679
F0.80000000000000004
sS'Yuksel Saygin'
p2680
F1
sS'Deborah L. McGuinness'
p2681
F0.14285714285714285
sS'David Campbell'
p2682
F0.40000000000000002
sS'Hong Gao'
p2683
F0.66666666666666663
sS'Bharat K. Bhargava'
p2684
F0.0625
sS'Shamkant B. Navathe'
p2685
F0.02570694087403599
sS'Serkan Toprak'
p2686
F1
sS'Michael Siegel'
p2687
F0.2857142857142857
sS'Manuel Mayr'
p2688
F1
sS'Dennis Tsichritzis'
p2689
F0.07407407407407407
sS'Michael Dohler'
p2690
F1
sS'Mario A. Lopez'
p2691
F0.16666666666666666
sS'Robert L. Bertini'
p2692
F1
sS'Mark Greenwood'
p2693
F0.66666666666666663
sS'Mohammed Rupawalla'
p2694
F1
sS'David Koop'
p2695
F1
sS'Kenny Qili Zhu'
p2696
F0.5
sS'Dushan Z. Badal'
p2697
F0.40000000000000002
sS'Luca Forlizzi'
p2698
F1
sS'Yixin Ruan'
p2699
F0.66666666666666663
sS'Times-Ten Team'
p2700
F0.66666666666666663
sS'Wendy T. Lucas'
p2701
F1
sS'Pablo Castro'
p2702
F0.33333333333333331
sS'Philip P. Macri'
p2703
F1
sS'Douglas B. Terry'
p2704
F0.66666666666666663
sS'Christos Doulkeridis'
p2705
F0.33333333333333331
sS'Dimitrios Gunopulos'
p2706
F0.052863436123348019
sS'Kenneth M. Curewitz'
p2707
F1
sS'Jeyashankher Ramamirtham'
p2708
F0.66666666666666663
sS'Qiong Chen'
p2709
F1
sS'B. L. Fritchman'
p2710
F1
sS'Kristi Morton'
p2711
F1
sS'Yu Huang'
p2712
F1
sS'John Hogg'
p2713
F1
sS'John A. Muckstadt'
p2714
F1
sS'Georgiana Ifrim'
p2715
F0.25
sS'Denis Rinfret'
p2716
F1
sS'David A. Nichols'
p2717
F1
sS'Jizhou Luo'
p2718
F1
sS'Sreekumar T. Shenoy'
p2719
F1
sS'Benjarath Phoophakdee'
p2720
F1
sS'Ruey-Lung Hsiao'
p2721
F1
sS'Guoren Wang'
p2722
F0.33333333333333331
sS'Angelika Kotz Dittrich'
p2723
F0.5714285714285714
sS'Rahul Gupta'
p2724
F0.15384615384615385
sS'Quan Z. Sheng'
p2725
F0.25
sS'Ana-Elisa Schmid'
p2726
F1
sS'Bhaskar Ghosh'
p2727
F1
sS'Catriel Beeri'
p2728
F0.026315789473684209
sS'Giovambattista Ianni'
p2729
F0.5
sS'Martti M\xc3\xa4ntyl\xc3\xa4'
p2730
F1
sS'Jeffrey Goh'
p2731
F1
sS'M. Lopez'
p2732
F0.66666666666666663
sS'Istvan Cseri'
p2733
F0.33333333333333331
sS'Kimberly M. James'
p2734
F1
sS'P. Colin'
p2735
F1
sS'Rahul Shah'
p2736
F0.16
sS'Christine Collet'
p2737
F0.2857142857142857
sS'Lawrence J. Henschen'
p2738
F0.042105263157894736
sS'Yizhou Sun'
p2739
F0.66666666666666663
sS'Augusto Celentano'
p2740
F0.33333333333333331
sS'Robert E. Frankel'
p2741
F1
sS'Fei Chiang'
p2742
F0.5
sS'Irene Kowarski'
p2743
F1
sS'James R. Pinkert'
p2744
F1
sS'Takahiko Shintani'
p2745
F0.33333333333333331
sS'Arvind Rajendran'
p2746
F1
sS'Rokas Tamosevicius'
p2747
F0.66666666666666663
sS'Chandrakant Natarajan'
p2748
F1
sS'Yaxin Yu'
p2749
F1
sS'Nuwee Wiwatwattana'
p2750
F0.2857142857142857
sS'Yuguo Chen'
p2751
F0.2857142857142857
sS'Robert L. Rappaport'
p2752
F1
sS'Yannis E. Ioannidis'
p2753
F0.041608876560332873
sS'Chendong Zou'
p2754
F0.5714285714285714
sS'Klaus R. Dittrich'
p2755
F0.10000000000000001
sS'Peter Carlin'
p2756
F1
sS'T. K. Rengarajan'
p2757
F0.66666666666666663
sS'Rajeev Rastogi'
p2758
F0.050541516245487361
sS'Steffen Rost'
p2759
F0.66666666666666663
sS'David L. Spooner'
p2760
F0.15384615384615385
sS'Gerald J. Popek'
p2761
F0.40000000000000002
sS'Ben Shneiderman'
p2762
F0.125
sS'Hing-Lung Lin'
p2763
F1
sS'K. V. S. Ramarao'
p2764
F0.090909090909090912
sS'Tom W. Keller'
p2765
F0.5714285714285714
sS'David Walker'
p2766
F0.80000000000000004
sS'Pedro Domingos'
p2767
F0.0097323600973236012
sS'Edward Sciore'
p2768
F0.26666666666666666
sS'Willis Luther'
p2769
F1
sS'H.-Bernhard Paul'
p2770
F0.66666666666666663
sS'Eric Sedlar'
p2771
F0.59999999999999998
sS'Michael Ley'
p2772
F1
sS'Maurizio Atzori'
p2773
F0.2857142857142857
sS'David Lauzon'
p2774
F1
sS'Yu Deng'
p2775
F0.2857142857142857
sS'Isaac Kunen'
p2776
F1
sS'Moshe Y. Vardi'
p2777
F0.005763688760806916
sS'Harald Sch\xc3\xb6ning'
p2778
F0.16666666666666666
sS'Susan Kotsovolos'
p2779
F0.66666666666666663
sS'Eugene Inseok Chong'
p2780
F0.068965517241379309
sS'Jennifer L. Beckmann'
p2781
F0.66666666666666663
sS'Georg Z\xc3\xb6rntlein'
p2782
F1
sS'Naoko Kosugi'
p2783
F1
sS'Jane Fedorowicz'
p2784
F1
sS'Doug Doole'
p2785
F0.66666666666666663
sS'Frederic Dang Ngoc'
p2786
F0.66666666666666663
sS'Joseph J\xc3\xa1J\xc3\xa1'
p2787
F1
sS'Feng Peng'
p2788
F0.66666666666666663
sS'Cetin Ozkan'
p2789
F1
sS'Vishal Sikka'
p2790
F0.36363636363636365
sS'Christian Richard'
p2791
F0.5
sS'Marek Rusinkiewicz'
p2792
F0.11940298507462686
sS'Yannis Manolopoulos'
p2793
F0.40000000000000002
sS'Clenn Thompson'
p2794
F1
sS'Daniel Abugov'
p2795
F1
sS'Jack Ng'
p2796
F1
sS'Joachim Biskup'
p2797
F0.5
sS'Hector Garcia-Molina'
p2798
F0.023798627002288329
sS'Wei Wang'
p2799
F0.019083969465648856
sS'Eugene J. Shekita'
p2800
F0.11428571428571428
sS'Steven D. Gribble'
p2801
F0.33333333333333331
sS'Heribert Sch\xc3\xbctz'
p2802
F1
sS'Zhiyong Huang'
p2803
F0.26666666666666666
sS'Anastasios Kementsietsidis'
p2804
F0.097560975609756101
sS'Norio Katayama'
p2805
F0.66666666666666663
sS'Zhengli Huang'
p2806
F0.5
sS'Robert M. Arlein'
p2807
F0.33333333333333331
sS'Vassilis J. Tsotras'
p2808
F0.024390243902439025
sS'Fei Pan'
p2809
F0.66666666666666663
sS'Elisa Bertino'
p2810
F0.026455026455026454
sS'David Shutt'
p2811
F0.33333333333333331
sS'Aldo Bongio'
p2812
F1
sS'Sam Mardanbeigi'
p2813
F1
sS'Thomas Beavin'
p2814
F1
sS'Marc H. Graham'
p2815
F0.097560975609756101
sS'Jay Banerjee'
p2816
F0.19047619047619047
sS'Mohamed Za\xc3\xaft'
p2817
F0.13333333333333333
sS'Brent N. Chun'
p2818
F1
sS'Umar Farooq Minhas'
p2819
F1
sS'R. Ananthanarayanan'
p2820
F1
sS'Saket Navlakha'
p2821
F1
sS'Dominique Laurent'
p2822
F0.125
sS'Sundar Saiprasad'
p2823
F1
sS'Ulla Merz'
p2824
F1
sS'Magdalena Balazinska'
p2825
F0.33333333333333331
sS'Claude Deheneffe'
p2826
F1
sS'Stefano Stefani'
p2827
F0.66666666666666663
sS'Anja Klein'
p2828
F1
sS'Bj\xc3\xb6rn \xc3\x9e\xc3\xb3r J\xc3\xb3nsson'
p2829
F0.66666666666666663
sS'Ambuj K. Singh'
p2830
F0.053333333333333337
sS'Chaitanya Mishra'
p2831
F0.54545454545454541
sS'Alessandro Pappalardo'
p2832
F0.66666666666666663
sS'Keishi Tajima'
p2833
F0.5
sS'Herb Edelstein'
p2834
F0.66666666666666663
sS'Brian Murphy'
p2835
F0.80000000000000004
sS'Suzanne Rivoire'
p2836
F1
sS'Anh-Tuan Tran'
p2837
F0.40000000000000002
sS'Stefan Sigg'
p2838
F1
sS'Daniel C. Zilio'
p2839
F0.25
sS'Zasha Weinberg'
p2840
F1
sS'Tian He'
p2841
F1
sS'Chung Wu'
p2842
F1
sS'Baldeo K. Taneja'
p2843
F0.66666666666666663
sS'Sunil Kamath'
p2844
F1
sS'Michael Stonebraker'
p2845
F0.031199569661108123
sS'Joseph C. Stoltzfus'
p2846
F1
sS'St\xc3\xa9phane Grumbach'
p2847
F0.037735849056603772
sS'Apostolos Papadopoulos'
p2848
F1
sS'Henry B. Kon'
p2849
F0.66666666666666663
sS'Euthimios Panagos'
p2850
F0.18604651162790697
sS'Min Wang'
p2851
F0.16326530612244897
sS'Steve B. Jiang'
p2852
F0.66666666666666663
sS'Alexander L. Wolf'
p2853
F0.80000000000000004
sS'Jeff Pollock'
p2854
F1
sS'Yufei Tao'
p2855
F0.046838407494145202
sS'Thomas Lee'
p2856
F0.66666666666666663
sS'Ren\xc3\xa9 M\xc3\xbcller'
p2857
F1
sS'Myungcheol Doo'
p2858
F1
sS'Thomas J. Cook'
p2859
F0.80000000000000004
sS'Ionut Emil Iacob'
p2860
F1
sS'Kenneth Baclawski'
p2861
F1
sS'Shiby Thomas'
p2862
F0.33333333333333331
sS'Helena Galhardas'
p2863
F0.5714285714285714
sS'Myoung-Ho Kim'
p2864
F0.16666666666666666
sS'Alan F. Dickey'
p2865
F1
sS'Alessandro Raffio'
p2866
F0.66666666666666663
sS'Mayer D. Schwartz'
p2867
F1
sS'Alberto Lerner'
p2868
F0.66666666666666663
sS'A. Prasad Sistla'
p2869
F0.17647058823529413
sS'Jerry Fowler'
p2870
F0.66666666666666663
sS'Roger Bamford'
p2871
F0.2857142857142857
sS'Alan Downing'
p2872
F0.66666666666666663
sS'Douglas K. Barry'
p2873
F0.66666666666666663
sS'Gail Mitchell'
p2874
F0.5
sS'Jingren Zhou'
p2875
F0.18666666666666668
sS'Bernd Amann'
p2876
F0.16666666666666666
sS'Phokion G. Kolaitis'
p2877
F0.0073529411764705881
sS'Marco P\xc3\xb6tke'
p2878
F0.5
sS'Charles Huyck'
p2879
F1
sS'B. J. Curry'
p2880
F1
sS'Greg Barish'
p2881
F0.5
sS'Bernhard Mitschang'
p2882
F0.061538461538461542
sS'Nancy E. Hall'
p2883
F0.80000000000000004
sS'Michael D. Morse'
p2884
F0.5
sS'Sue M. Dintelman'
p2885
F1
sS'Andrew Lim'
p2886
F0.083333333333333329
sS'Gautam Bhargava'
p2887
F0.5
sS'Yang Xiang'
p2888
F0.33333333333333331
sS'Kevin S. Beyer'
p2889
F0.16666666666666666
sS'Christopher W. Hield'
p2890
F1
sS'Hung-chih Yang'
p2891
F1
sS'David Buttler'
p2892
F0.42105263157894735
sS'Yong Sik Kwon'
p2893
F1
sS'Jignesh M. Patel'
p2894
F0.059405940594059403
sS'Thomas Maguire'
p2895
F1
sS'Martin Theobald'
p2896
F0.052631578947368418
sS'Radek Vingralek'
p2897
F0.18181818181818182
sS'William J. McKenna'
p2898
F0.13333333333333333
sS'Gary Hallmark'
p2899
F0.5
sS'Larry Ellison'
p2900
F1
sS'Wayne Niblack'
p2901
F0.40000000000000002
sS'Bruce E. Martin'
p2902
F0.2857142857142857
sS'Paula B. Hawthorn'
p2903
F0.31578947368421051
sS'Jie Xu'
p2904
F1
sS'Duri Schmidt'
p2905
F1
sS'Antonio Corral'
p2906
F1
sS'G. V. Ramaraju'
p2907
F1
sS'Ding Chen'
p2908
F1
sS'Jordan Parker'
p2909
F1
sS'Junyi Xie'
p2910
F0.40000000000000002
sS'Thomas Keller'
p2911
F1
sS'Helen J. Wang'
p2912
F0.66666666666666663
sS'Zengping Tian'
p2913
F0.20000000000000001
sS'Charles Connell'
p2914
F1
sS'Kemal Altintas'
p2915
F1
sS'Ashok Josji'
p2916
F1
sS'Hakan Hacig\xc3\xbcm\xc3\xbcs'
p2917
F0.40000000000000002
sS'Allen Van Gelder'
p2918
F0.038461538461538464
sS'Alfred V. Aho'
p2919
F0.66666666666666663
sS'Fen-Ling Ling'
p2920
F0.66666666666666663
sS'Gottfried Vossen'
p2921
F0.11428571428571428
sS'V. Srinivasan'
p2922
F0.5
sS'Anand Deshpande'
p2923
F0.44444444444444442
sS'Gayatri Sathe'
p2924
F0.66666666666666663
sS'Michael Greenwald'
p2925
F0.66666666666666663
sS'Ron Avnur'
p2926
F0.80000000000000004
sS'Max Harry Weil'
p2927
F1
sS'J\xc3\xbcrgen Kr\xc3\xa4mer'
p2928
F0.16666666666666666
sS'Anoop Gupta'
p2929
F0.10526315789473684
sS'Stefan Saroiu'
p2930
F1
sS'Michele Missikoff'
p2931
F0.40000000000000002
sS'Hui Jin'
p2932
F0.66666666666666663
sS'Sunil Samtani'
p2933
F0.66666666666666663
sS'Shurug Al-Khalifa'
p2934
F0.5714285714285714
sS'Giansalvatore Mecca'
p2935
F0.18604651162790697
sS'Florin Rusu'
p2936
F0.59999999999999998
sS'Yong Yu'
p2937
F0.011627906976744186
sS'Walid G. Aref'
p2938
F0.021897810218978103
sS'Ling Wang'
p2939
F0.14285714285714285
sS'Gustavo Alonso'
p2940
F0.085470085470085472
sS'Lubor Koll\xc3\xa1r'
p2941
F0.66666666666666663
sS'Michael Duller'
p2942
F0.80000000000000004
sS'German Shegalov'
p2943
F0.30769230769230771
sS'Hugo Rivero'
p2944
F1
sS'William W. Cohen'
p2945
F0.027210884353741496
sS'Sunil Podar'
p2946
F1
sS'Cl\xc3\xa1udio T. Silva'
p2947
F0.80000000000000004
sS"Jun'ichi Tanaka"
p2948
F1
sS'Stratos Papadomanolakis'
p2949
F0.5714285714285714
sS'Arding Hsu'
p2950
F0.66666666666666663
sS'Peter Lim'
p2951
F1
sS'Jing Chen'
p2952
F0.5
sS"Marc Prud'hommeaux"
p2953
F1
sS'Gianvito Summa'
p2954
F0.66666666666666663
sS'Maria-Esther Vidal'
p2955
F0.5
sS'David Botzer'
p2956
F0.66666666666666663
sS'Bin Liu'
p2957
F0.14814814814814814
sS'Jianzhong Li'
p2958
F0.11538461538461539
sS'Berni Schiefer'
p2959
F1
sS'Jun Chen'
p2960
F0.66666666666666663
sS'James P. Richardson'
p2961
F0.66666666666666663
sS'Daniela Florescu'
p2962
F0.079136690647482008
sS'Peter G. Selfridge'
p2963
F0.2857142857142857
sS'Douglas N. Gordin'
p2964
F1
sS'Silvio Salza'
p2965
F0.66666666666666663
sS'Ravishankar Ramamurthy'
p2966
F0.40000000000000002
sS'C. P. Chou'
p2967
F1
sS'Man Lung Yiu'
p2968
F0.10000000000000001
sS'Wen-Syan Li'
p2969
F0.064000000000000001
sS'Laura Chiticariu'
p2970
F0.22222222222222221
sS'Rivka Ladin'
p2971
F0.2857142857142857
sS'Jianchang Xiao'
p2972
F1
sS'M. Tamer \xc3\x96zsu'
p2973
F0.05533596837944664
sS'A. Khivesera'
p2974
F0.66666666666666663
sS'Anirban Mondal'
p2975
F1
sS'Barbara Pernici'
p2976
F0.66666666666666663
sS'Fanny Wattez'
p2977
F1
sS'Heasoo Hwang'
p2978
F0.80000000000000004
sS'Gregory R. Ganger'
p2979
F0.2857142857142857
sS'Bernd Burkert'
p2980
F1
sS'Koichi Goto'
p2981
F0.66666666666666663
sS'Peter Bumbulis'
p2982
F1
sS'Eugene Shih'
p2983
F1
sS'Edward P. F. Chan'
p2984
F0.093023255813953487
sS'Tobin J. Lehman'
p2985
F0.29629629629629628
sS'Devavrat Shah'
p2986
F1
sS'Opher Etzion'
p2987
F0.66666666666666663
sS'Marc Wichterich'
p2988
F0.5
sS'Guozhu Dong'
p2989
F0.061224489795918366
sS'Keki B. Irani'
p2990
F0.072727272727272724
sS'Edward Omiecinski'
p2991
F0.025000000000000001
sS'Michael Stewart'
p2992
F1
sS'Stan Sclaroff'
p2993
F0.029850746268656716
sS'Matthew C. Jones'
p2994
F0.66666666666666663
sS'George T. Heineman'
p2995
F0.5
sS'Vibha Dayal'
p2996
F1
sS'Shankar Pal'
p2997
F0.23529411764705882
sS'Xiaowei Sun'
p2998
F1
sS'Don Vines'
p2999
F1
sS'Yu Qian'
p3000
F0.33333333333333331
sS'Sumin Song'
p3001
F1
sS'Pedro V. Sander'
p3002
F0.80000000000000004
sS'Feifei Li'
p3003
F0.088888888888888892
sS'Michael Jones'
p3004
F1
sS'Bogdan Cautis'
p3005
F0.5
sS'Lars Arge'
p3006
F0.15384615384615385
sS'Arunprasad P. Marathe'
p3007
F0.44444444444444442
sS'Pinar Koksal'
p3008
F0.66666666666666663
sS'Yong-Jin Choi'
p3009
F1
sS'Yu Xu'
p3010
F0.29629629629629628
sS'D. M. Chiu'
p3011
F1
sS'Les Miller'
p3012
F1
sS'Steffen Christ'
p3013
F1
sS'Eugene Wu 0002'
p3014
F0.66666666666666663
sS'Chunqiang Tang'
p3015
F0.13333333333333333
sS'Emanuele Santos'
p3016
F1
sS'Nigel Westbury'
p3017
F1
sS'Sara Comai'
p3018
F0.33333333333333331
sS'Rui Fang'
p3019
F0.80000000000000004
sS'Supiti Buranawatanachoke'
p3020
F1
sS'R. M. Lee'
p3021
F0.66666666666666663
sS'Allan Shepherd'
p3022
F1
sS'Hans-Arno Jacobsen'
p3023
F0.068965517241379309
sS'Thomas Rose'
p3024
F0.66666666666666663
sS'John Keenleyside'
p3025
F1
sS'Aristides Gionis'
p3026
F0.055555555555555552
sS'Peter T. Wood'
p3027
F0.15384615384615385
sS'Edward W. Winters'
p3028
F1
sS'Paul Ostwald'
p3029
F1
sS'Rajasekar Krishnamurthy'
p3030
F0.11428571428571428
sS'Mark Deppe'
p3031
F1
sS'Rajeev Motwani'
p3032
F0.068728522336769765
sS'Chris Mayfield'
p3033
F0.33333333333333331
sS'Matthew Mihic'
p3034
F1
sS'P. Krishna Reddy'
p3035
F0.66666666666666663
sS'Ning Ruan'
p3036
F0.66666666666666663
sS'S. E. Smith'
p3037
F1
sS'William Bohrer'
p3038
F0.54545454545454541
sS'Pierangela Samarati'
p3039
F0.13333333333333333
sS'Giuseppe Pelagatti'
p3040
F0.5
sS'Alejandro P. Buchmann'
p3041
F0.026315789473684209
sS'George H. L. Fletcher'
p3042
F0.5
sS'Keith Ito'
p3043
F1
sS'Alex Tsukerman'
p3044
F1
sS'Ying Xing'
p3045
F0.40000000000000002
sS'Betty Salzberg'
p3046
F0.140625
sS'Rita C. Summers'
p3047
F0.66666666666666663
sS'Xuemin Lin'
p3048
F0.032258064516129031
sS'Kathryn L. Schenk'
p3049
F1
sS'Nell B. Dale'
p3050
F0.80000000000000004
sS'Bob Thome'
p3051
F1
sS'John R. Smith'
p3052
F0.33333333333333331
sS'Dinesh Manocha'
p3053
F0.5
sS'Chavdar Botev'
p3054
F0.42857142857142855
sS'Rosana S. G. Lanzelotte'
p3055
F0.25
sS'Xiaopeng Xiong'
p3056
F0.16666666666666666
sS'Adriane Chapman'
p3057
F0.47058823529411764
sS'Ming Hua'
p3058
F0.375
sS'Nancy D. Griffeth'
p3059
F0.66666666666666663
sS'Andrew Witkowski'
p3060
F0.046511627906976744
sS'Sridhar Ramaswamy'
p3061
F0.21212121212121213
sS'Lv-an Tang'
p3062
F1
sS'Grace Au'
p3063
F1
sS'Nodira Khoussainova'
p3064
F0.66666666666666663
sS'C. Unnikrishnan'
p3065
F0.59999999999999998
sS'Zvi M. Kedem'
p3066
F0.095238095238095233
sS'Parke Godfrey'
p3067
F0.5
sS'Henrique Andrade'
p3068
F0.80000000000000004
sS'Melanie Weis'
p3069
F0.33333333333333331
sS'James R. Thieman'
p3070
F1
sS'C. Mohan'
p3071
F0.053977272727272728
sS'Il-Yeol Song'
p3072
F0.050000000000000003
sS'Zhouxuan Teng'
p3073
F0.40000000000000002
sS'G. C. Bacon'
p3074
F1
sS'Chitra Venkatramani'
p3075
F1
sS'Nitin Gupta 0003'
p3076
F0.5
sS'Gil Hecht'
p3077
F1
sS'Ivan T. Bowman'
p3078
F0.44444444444444442
sS'Yun Wang'
p3079
F0.36363636363636365
sS'Benjamin Bin Yao'
p3080
F0.66666666666666663
sS'Jeff Pavel'
p3081
F1
sS'Bret Hull'
p3082
F0.66666666666666663
sS'David Chenho Kung'
p3083
F0.66666666666666663
sS'Jimeng Sun'
p3084
F0.041666666666666664
sS'Lawrence Jacobs'
p3085
F1
sS'Junghoo Cho'
p3086
F0.1095890410958904
sS'M. Rieskamp'
p3087
F1
sS'Henry M. Levy'
p3088
F0.33333333333333331
sS'Viswanathan Krishnamurthy'
p3089
F0.80000000000000004
sS'J. Srinivasan'
p3090
F0.80000000000000004
sS'Filippo Cacace'
p3091
F0.80000000000000004
sS'Trevor Jim'
p3092
F0.5
sS'Yi Fang'
p3093
F1
sS'Jean Ferri\xc3\xa9'
p3094
F0.40000000000000002
sS'Ting Yu'
p3095
F0.125
sS'Mostafa Elhemali'
p3096
F1
sS'Yibei Ling'
p3097
F0.33333333333333331
sS'C. Gregory Doherty'
p3098
F1
sS'Yuan-Chi Chang'
p3099
F0.5
sS'Beverly Yang'
p3100
F0.16666666666666666
sS'Thomas C. Rakow'
p3101
F0.2857142857142857
sS'William Kyu'
p3102
F1
sS'Thomas A. Funkhouser'
p3103
F1
sS'Sergey Brin'
p3104
F0.375
sS'Shridhar Acharya'
p3105
F1
sS'Tapas Kanungo'
p3106
F0.2857142857142857
sS'Bernhard Braunm\xc3\xbcller'
p3107
F0.5
sS'Mark Day'
p3108
F1
sS'Sagar Mittal'
p3109
F1
sS'Biswanath Panda'
p3110
F0.5
sS'Robert Lyle'
p3111
F1
sS'Arthur Zimek'
p3112
F0.16666666666666666
sS'Rachel Pottinger'
p3113
F0.13333333333333333
sS'W. G. Driggers'
p3114
F1
sS'Anil Edakkunni'
p3115
F0.66666666666666663
sS'M. Higa'
p3116
F1
sS'Jean-Marie Nicolas'
p3117
F0.66666666666666663
sS'Richard Jeffers'
p3118
F0.66666666666666663
sS'Peter J. Stuckey'
p3119
F0.25
sS'Manuel Rodriguez-Martinez'
p3120
F0.66666666666666663
sS'Fred Douglis'
p3121
F0.40000000000000002
sS'Sandeep Tata'
p3122
F0.20000000000000001
sS'Tam Nguyen'
p3123
F1
sS'An Lu'
p3124
F1
sS'Tim Sturge'
p3125
F1
sS'Anastasia Analyti'
p3126
F1
sS'Nelson Mendon\xc3\xa7a Mattos'
p3127
F0.11940298507462686
sS'Witold Staniszkis'
p3128
F0.2857142857142857
sS'Daniel M. Dias'
p3129
F0.024390243902439025
sS'Marcus Dill'
p3130
F1
sS'Oded Shmueli'
p3131
F0.038216560509554139
sS'Mark Humphrey'
p3132
F1
sS'Zhihua Wang'
p3133
F1
sS'Patricia G. Selinger'
p3134
F0.21428571428571427
sS'Manolis Koubarakis'
p3135
F0.10000000000000001
sS'Wolfgang Nejdl'
p3136
F0.017699115044247787
sS'Wenliang Du'
p3137
F0.20000000000000001
sS'Masashi Morimoto'
p3138
F0.66666666666666663
sS'Manoj Syamala'
p3139
F0.33333333333333331
sS'Mybrid Spalding'
p3140
F1
sS'Raju Balakrishnan'
p3141
F1
sS'Ioana Stanoi'
p3142
F0.25
sS'Kam-yiu Lam'
p3143
F0.33333333333333331
sS'Yaqin Liao'
p3144
F1
sS'Daniel Barbar\xc3\xa1'
p3145
F0.041666666666666664
sS'Christine Tomlinson'
p3146
F0.59999999999999998
sS'B. F. Anderson'
p3147
F1
sS'Raghu Ramakrishnan'
p3148
F0.026628625772705659
sS'Hamid Pirahesh'
p3149
F0.062972292191435769
sS'Bj\xc3\xb6rn Blohsfeld'
p3150
F0.66666666666666663
sS'Gary Valentin'
p3151
F0.66666666666666663
sS'Setrag Khoshafian'
p3152
F0.125
sS'Tok Wang Ling'
p3153
F0.023529411764705882
sS'Xiangyu Ju'
p3154
F1
sS'Bernd Strodthoff'
p3155
F1
sS'Amy J. Lee'
p3156
F0.40000000000000002
sS'James Beard'
p3157
F1
sS'Gao Cong'
p3158
F0.16666666666666666
sS'George Lapis'
p3159
F0.42105263157894735
sS'Anne H. H. Ngu'
p3160
F0.21428571428571427
sS'Alon Pilberg'
p3161
F0.66666666666666663
sS'Prakash Sundaresan'
p3162
F1
sS'Niki Siambela'
p3163
F1
sS'JeongKyu Lee'
p3164
F0.66666666666666663
sS'Harumi A. Kuno'
p3165
F0.5
sS'Fernando Machuca'
p3166
F1
sS'David A. Graf'
p3167
F1
sS'Ani Thakar'
p3168
F0.80000000000000004
sS'Arun Jagatheesan'
p3169
F0.66666666666666663
sS'Dao-I Lin'
p3170
F0.66666666666666663
sS'Cass Squire'
p3171
F1
sS'Mong-Li Lee'
p3172
F0.036585365853658534
sS'Cheng Hian Goh'
p3173
F0.095238095238095233
sS'M. Toiati'
p3174
F1
sS'Marcia A. Derr'
p3175
F0.66666666666666663
sS'Anjali Jhingran'
p3176
F1
sS'David D. Wright'
p3177
F0.66666666666666663
sS'John S. Keen'
p3178
F0.66666666666666663
sS'Monica Urata'
p3179
F1
sS'P. P. S. Narayan'
p3180
F0.23076923076923078
sS'Narayanan Shivakumar'
p3181
F0.22222222222222221
sS'Vishu Krishnamurthy'
p3182
F0.66666666666666663
sS'Krishna G. Kulkarni'
p3183
F1
sS'D. DeJong'
p3184
F1
sS'Thomas Tschernko'
p3185
F1
sS'Huahai Yang'
p3186
F0.5714285714285714
sS'Fran\xc3\xa7ois Dang Ngoc'
p3187
F0.33333333333333331
sS'R. Hogan'
p3188
F1
sS'Tiffany Dohzen'
p3189
F1
sS'Alan G. Merten'
p3190
F0.18181818181818182
sS'Prakash Ramanan'
p3191
F0.66666666666666663
sS'Wilfred Ng'
p3192
F0.2857142857142857
sS'Panagiotis Papapetrou'
p3193
F0.5
sS'Venky Harinarayan'
p3194
F0.2857142857142857
sS'Walter A. Burkhard'
p3195
F0.25
sS'John Jannotti'
p3196
F0.80000000000000004
sS'Daphne Koller'
p3197
F0.0055710306406685237
sS'Edward D. Lazowska'
p3198
F0.40000000000000002
sS'Steven Minton'
p3199
F0.040816326530612242
sS'Christian Mathis'
p3200
F0.66666666666666663
sS'Andreas Grasnickel'
p3201
F1
sS'Martin L. Kersten'
p3202
F0.024390243902439025
sS'Kris Ganjam'
p3203
F0.59999999999999998
sS'Victor E. Segal'
p3204
F1
sS'Marianne Winslett'
p3205
F0.059701492537313432
sS'Peter Klahold'
p3206
F0.5
sS'Lipyeow Lim'
p3207
F0.13793103448275862
sS'Kenneth C. Wilner'
p3208
F1
sS'Nematollaah Shiri'
p3209
F0.33333333333333331
sS'Wayne E. Moore'
p3210
F1
sS'James N. Etheredge'
p3211
F1
sS'Stanley Y. W. Su'
p3212
F0.054794520547945202
sS'Rui Yang'
p3213
F0.66666666666666663
sS'Ilya Figotin'
p3214
F1
sS'Guy M. Lohman'
p3215
F0.069444444444444448
sS'G. S. Reddy'
p3216
F1
sS'Tomasz Imielinski'
p3217
F0.10480349344978165
sS'Chen Wang'
p3218
F0.26666666666666666
sS'Kathy Lee Simunich'
p3219
F1
sS'Kirk Wylie'
p3220
F1
sS'Ryan Kennedy'
p3221
F1
sS'Eduardo F. Galvez'
p3222
F0.5
sS'Irina Kogan'
p3223
F1
sS'Michael L. Heytens'
p3224
F0.40000000000000002
sS'Jayant R. Haritsa'
p3225
F0.044871794871794872
sS'Piero A. Bonatti'
p3226
F0.22222222222222221
sS'Jiansheng Huang'
p3227
F0.66666666666666663
sS'Erhard Rahm'
p3228
F0.091954022988505746
sS'Panayiotis Tsaparas'
p3229
F0.064516129032258063
sS'Luciano Resende'
p3230
F1
sS'Stefano Ceri'
p3231
F0.059701492537313432
sS'Yiyao Lu'
p3232
F0.66666666666666663
sS'Christos A. Polyzois'
p3233
F0.33333333333333331
sS'Bhushan Mandhani'
p3234
F0.5
sS'Naga K. Govindaraju'
p3235
F0.35714285714285715
sS'Bertram Lud\xc3\xa4scher'
p3236
F0.12121212121212122
sS'Wenwei Xue'
p3237
F0.66666666666666663
sS'Vinay Deshpande'
p3238
F0.66666666666666663
sS"Alessandro D'Atri"
p3239
F0.16666666666666666
sS'Neil Immerman'
p3240
F0.25
sS'Thomas W. Page Jr.'
p3241
F0.66666666666666663
sS'St\xc3\xa9phane Bressan'
p3242
F0.20000000000000001
sS'James Clifford'
p3243
F0.35294117647058826
sS'Nicoleta Preda'
p3244
F0.13333333333333333
sS'Sumit Ganguly'
p3245
F0.13698630136986301
sS'Feng Cao'
p3246
F0.5
sS'Israel Gold'
p3247
F0.66666666666666663
s.