ccollections
defaultdict
p1
(c__builtin__
list
p2
tRp3
I3
(lp4
(F13.484242916107178
F14.609694004058838
F1.1920928955078125e-05
I64
tp5
asI4
(lp6
(F29.202910900115967
F21.864228010177612
F0.38521718978881836
I64
tp7
asI5
(lp8
(F464.88529896736145
F14.063148021697998
F0.65923714637756348
I64
tp9
asI7
(lp10
(F7283.6679430007935
F37.951282978057861
F8.2708859443664551
I64
tp11
as.