(dp1
S'IJCAI'
p2
F0.0059192485497506775
sS'CVPR'
p3
F0.0017408701462544565
sS'WWW'
p4
F0.30733854777929664
sS'PAKDD'
p5
F0.00050351916294615951
sS'SIGMOD'
p6
F0.069648651688416482
sS'KDD'
p7
F1
sS'ICML'
p8
F0.35615199504772466
sS'VLDB'
p9
F0.12608120739793235
sS'ICDE'
p10
F0.37946176121002972
sS'CIKM'
p11
F0.47762394822279991
sS'ICDM'
p12
F0.17896117158470878
sS'ECIR'
p13
F1.144540628296798e-05
sS'ECML'
p14
F0.0080702527314947051
sS'SDM'
p15
F2.5687787789313015e-06
sS'AAAI'
p16
F0.0038278576748292229
sS'EDBT'
p17
F0.047830906405239904
sS'WSDM'
p18
F7.5146403274931986e-07
sS'PODS'
p19
F0.29953961510357885
sS'SIGIR'
p20
F0.15336053225216684
sS'PKDD'
p21
F0.0085307859479090854
s.