(dp1
S'IJCAI'
p2
F0.048613941432728874
sS'CVPR'
p3
F0.039303139344969623
sS'WWW'
p4
F0.2031466482829449
sS'PAKDD'
p5
F0.0093280132391058649
sS'SIGMOD'
p6
F0.21690934284599445
sS'KDD'
p7
F1
sS'ICML'
p8
F0.28200407682867173
sS'VLDB'
p9
F0.22985054939630251
sS'ICDE'
p10
F0.22917058488563274
sS'CIKM'
p11
F0.240527835781748
sS'ICDM'
p12
F0.22137090657136038
sS'ECIR'
p13
F0.002219213499023947
sS'ECML'
p14
F0.087507109263311553
sS'SDM'
p15
F0.00018262665544793843
sS'AAAI'
p16
F0.063676332695692478
sS'EDBT'
p17
F0.084959063724614078
sS'WSDM'
p18
F0.00041450672564747514
sS'PODS'
p19
F0.180680007459844
sS'SIGIR'
p20
F0.20517988578572605
sS'PKDD'
p21
F0.050882942960544124
s.