(dp1
S'IJCAI'
p2
F2.5770194961060497e-12
sS'CVPR'
p3
F1.619160389508135e-12
sS'WWW'
p4
F3.400466513112303e-12
sS'PAKDD'
p5
F2.662898248813825e-13
sS'SIGMOD'
p6
F2.8703479631074971e-14
sS'KDD'
p7
F1.9859810218576703e-11
sS'ICML'
p8
F3.7122629495440703e-12
sS'VLDB'
p9
F1.0546488987745796e-13
sS'ICDE'
p10
F2.1162881964518344e-12
sS'CIKM'
p11
F1.0858184279307137e-11
sS'ICDM'
p12
F1.1792195360766561e-11
sS'ECIR'
p13
F5.5926096467571134e-14
sS'ECML'
p14
F4.3891743355769473e-12
sS'SDM'
p15
F4.0636088785373036e-15
sS'AAAI'
p16
F3.8827654624914724e-12
sS'EDBT'
p17
F4.1250896333553662e-12
sS'WSDM'
p18
F9.4729742117625825e-15
sS'PODS'
p19
F2.3000418288181395e-12
sS'SIGIR'
p20
F1.7487318521498451e-13
sS'PKDD'
p21
F2.0354610958186243e-12
s.