(dp1
S'IJCAI'
p2
F0.041285575764395892
sS'CVPR'
p3
F0.022540711678864282
sS'WWW'
p4
F0.207219161396274
sS'PAKDD'
p5
F0.0047952492876904666
sS'SIGMOD'
p6
F0.16903505454077972
sS'KDD'
p7
F0.20517988578572605
sS'ICML'
p8
F0.18733121758238186
sS'VLDB'
p9
F0.18139500025975264
sS'ICDE'
p10
F0.16706594574697997
sS'CIKM'
p11
F0.25055011900591628
sS'ICDM'
p12
F0.1034777092575405
sS'ECIR'
p13
F0.0021089254727632762
sS'ECML'
p14
F0.07388823519952524
sS'SDM'
p15
F0.00021369518467748304
sS'AAAI'
p16
F0.050171029442814256
sS'EDBT'
p17
F0.071461687525186987
sS'WSDM'
p18
F0.00042530688548449733
sS'PODS'
p19
F0.13312312999656806
sS'SIGIR'
p20
F1
sS'PKDD'
p21
F0.03017556927276847
s.