(dp1
S'IJCAI'
p2
F2.3886638636717006e-14
sS'CVPR'
p3
F9.9439503020768721e-15
sS'WWW'
p4
F1.3232364554554887e-13
sS'PAKDD'
p5
F1.4243906794502584e-15
sS'SIGMOD'
p6
F1.0114828119419683e-14
sS'KDD'
p7
F1.7487318521498451e-13
sS'ICML'
p8
F1.3918474270211325e-13
sS'VLDB'
p9
F2.5762893502784662e-14
sS'ICDE'
p10
F1.0060124450529984e-13
sS'CIKM'
p11
F2.5014045135696949e-13
sS'ICDM'
p12
F7.2422653631647343e-14
sS'ECIR'
p13
F5.4952180572761825e-16
sS'ECML'
p14
F4.2399754022973549e-14
sS'SDM'
p15
F4.8667549306624872e-17
sS'AAAI'
p16
F3.3985159146864774e-14
sS'EDBT'
p17
F4.3549179871629211e-14
sS'WSDM'
p18
F9.9709293265081225e-17
sS'PODS'
p19
F8.3290985147191206e-14
sS'SIGIR'
p20
F2.0072352882701468e-13
sS'PKDD'
p21
F1.3139049265360542e-14
s.