(dp1
S'IJCAI'
p2
F0.00045677727915301077
sS'CVPR'
p3
F9.5996704873220183e-05
sS'WWW'
p4
F0.13561203405606931
sS'PAKDD'
p5
F1.0229148462972852e-05
sS'SIGMOD'
p6
F0.1308923399589754
sS'KDD'
p7
F0.15336053225216684
sS'ICML'
p8
F0.14426926862294315
sS'VLDB'
p9
F0.16557993521933714
sS'ICDE'
p10
F0.088930121554675459
sS'CIKM'
p11
F0.11360237155693773
sS'ICDM'
p12
F0.007714978229365334
sS'ECIR'
p13
F4.6884090330090183e-06
sS'ECML'
p14
F0.0012690151591510206
sS'SDM'
p15
F8.6339553902145593e-08
sS'AAAI'
p16
F0.00042097048347945331
sS'EDBT'
p17
F0.0024053417752323658
sS'WSDM'
p18
F5.2442747501472096e-08
sS'PODS'
p19
F0.052824750308308792
sS'SIGIR'
p20
F1
sS'PKDD'
p21
F0.00025817717994359611
s.